PC      Output            Line   Source
000000                    0001   	.assume adl=1
000000  ED 57             0002   	ld a, i
000002  DD 7E 05          0003   	ld a, (ix+5)
000005  FD 7E 05          0004   	ld a, (iy+5)
000008  ED 6E             0005   	ld a, mb
00000A  3A CC BB AA       0006   	ld a, ($aabbcc)
00000E  ED 5F             0007   	ld a, r
000010  0A                0008   	ld a, (bc)
000011  1A                0009   	ld a, (de)
000012  7E                0010   	ld a, (hl)
000013  ED D7             0011   	ld hl, i
000015  ED 3F             0012   	ld (hl), ix
000017  ED 3E             0013   	ld (hl), iy
000019  36 05             0014   	ld (hl), 5
00001B  77                0015   	ld (hl), a
00001C  70                0016   	ld (hl), b
00001D  71                0017   	ld (hl), c
00001E  72                0018   	ld (hl), d
00001F  73                0019   	ld (hl), e
000020  74                0020   	ld (hl), h
000021  75                0021   	ld (hl), l
000022  ED 0F             0022   	ld (hl), bc
000024  ED 1F             0023   	ld (hl), de
000026  ED 2F             0024   	ld (hl), hl
000028  ED C7             0025   	ld i, hl
00002A  ED 47             0026   	ld i, a
00002C  DD 64             0027   	ld ixh, ixh
00002E  DD 65             0028   	ld ixh, ixl
000030  DD 6C             0029   	ld ixl, ixh
000032  DD 6D             0030   	ld ixl, ixl
000034  FD 64             0031   	ld iyh, iyh
000036  FD 65             0032   	ld iyh, iyl
000038  FD 6C             0033   	ld iyl, iyh
00003A  FD 6D             0034   	ld iyl, iyl
00003C  DD 26 05          0035   	ld ixh, 5
00003F  DD 2E 05          0036   	ld ixl, 5
000042  FD 26 05          0037   	ld iyh, 5
000045  FD 2E 05          0038   	ld iyl, 5
000048  DD 67             0039   	ld ixh, a
00004A  DD 60             0040   	ld ixh, b
00004C  DD 61             0041   	ld ixh, c
00004E  DD 62             0042   	ld ixh, d
000050  DD 63             0043   	ld ixh, e
000052  DD 6F             0044   	ld ixl, a
000054  DD 68             0045   	ld ixl, b
000056  DD 69             0046   	ld ixl, c
000058  DD 6A             0047   	ld ixl, d
00005A  DD 6B             0048   	ld ixl, e
00005C  FD 67             0049   	ld iyh, a
00005E  FD 60             0050   	ld iyh, b
000060  FD 61             0051   	ld iyh, c
000062  FD 62             0052   	ld iyh, d
000064  FD 63             0053   	ld iyh, e
000066  FD 6F             0054   	ld iyl, a
000068  FD 68             0055   	ld iyl, b
00006A  FD 69             0056   	ld iyl, c
00006C  FD 6A             0057   	ld iyl, d
00006E  FD 6B             0058   	ld iyl, e
000070  ED 37             0059   	ld ix, (hl)
000072  ED 31             0060   	ld iy, (hl)
000074  DD 37 05          0061   	ld ix, (ix+5)
000077  DD 31 05          0062   	ld iy, (ix+5)
00007A  FD 31 05          0063   	ld ix, (iy+5)
00007D  FD 37 05          0064   	ld iy, (iy+5)
000080  DD 21 CC BB AA    0065   	ld ix, $aabbcc
000085  FD 21 CC BB AA    0066   	ld iy, $aabbcc
00008A  DD 2A CC BB AA    0067   	ld ix, ($aabbcc)
00008F  FD 2A CC BB AA    0068   	ld iy, ($aabbcc)
000094  DD 3F 05          0069   	ld (ix+5), ix
000097  DD 3E 05          0070   	ld (ix+5), iy
00009A  FD 3E 05          0071   	ld (iy+5), ix
00009D  FD 3F 05          0072   	ld (iy+5), iy
0000A0  DD 36 05 0A       0073   	ld (ix+5), 10
0000A4  FD 36 05 0A       0074   	ld (iy+5), 10
0000A8  DD 77 05          0075   	ld (ix+5), a
0000AB  DD 70 05          0076   	ld (ix+5), b
0000AE  DD 71 05          0077   	ld (ix+5), c
0000B1  DD 72 05          0078   	ld (ix+5), d
0000B4  DD 73 05          0079   	ld (ix+5), e
0000B7  DD 74 05          0080   	ld (ix+5), h
0000BA  DD 75 05          0081   	ld (ix+5), l
0000BD  FD 77 05          0082   	ld (iy+5), a
0000C0  FD 70 05          0083   	ld (iy+5), b
0000C3  FD 71 05          0084   	ld (iy+5), c
0000C6  FD 72 05          0085   	ld (iy+5), d
0000C9  FD 73 05          0086   	ld (iy+5), e
0000CC  FD 74 05          0087   	ld (iy+5), h
0000CF  FD 75 05          0088   	ld (iy+5), l
0000D2  DD 0F 05          0089   	ld (ix+5), bc
0000D5  DD 1F 05          0090   	ld (ix+5), de
0000D8  DD 2F 05          0091   	ld (ix+5), hl
0000DB  FD 0F 05          0092   	ld (iy+5), bc
0000DE  FD 1F 05          0093   	ld (iy+5), de
0000E1  FD 2F 05          0094   	ld (iy+5), hl
0000E4  ED 6D             0095   	ld mb, a
0000E6  32 CC BB AA       0096   	ld ($aabbcc), a
0000EA  DD 22 CC BB AA    0097   	ld ($aabbcc), ix
0000EF  FD 22 CC BB AA    0098   	ld ($aabbcc), iy
0000F4  ED 43 CC BB AA    0099   	ld ($aabbcc), bc
0000F9  ED 53 CC BB AA    0100   	ld ($aabbcc), de
0000FE  22 CC BB AA       0101   	ld ($aabbcc), hl
000102  ED 73 CC BB AA    0102   	ld ($aabbcc), sp
000107  ED 4F             0103   	ld r, a
000109  7E                0104   	ld a, (hl)
00010A  46                0105   	ld b, (hl)
00010B  4E                0106   	ld c, (hl)
00010C  56                0107   	ld d, (hl)
00010D  5E                0108   	ld e, (hl)
00010E  66                0109   	ld h, (hl)
00010F  6E                0110   	ld l, (hl)
000110  DD 7C             0111   	ld a, ixh
000112  DD 7D             0112   	ld a, ixl
000114  FD 7C             0113   	ld a, iyh
000116  FD 7D             0114   	ld a, iyl
000118  DD 44             0115   	ld b, ixh
00011A  DD 45             0116   	ld b, ixl
00011C  FD 44             0117   	ld b, iyh
00011E  FD 45             0118   	ld b, iyl
000120  DD 4C             0119   	ld c, ixh
000122  DD 4D             0120   	ld c, ixl
000124  FD 4C             0121   	ld c, iyh
000126  FD 4D             0122   	ld c, iyl
000128  DD 54             0123   	ld d, ixh
00012A  DD 55             0124   	ld d, ixl
00012C  FD 54             0125   	ld d, iyh
00012E  FD 55             0126   	ld d, iyl
000130  DD 5C             0127   	ld e, ixh
000132  DD 5D             0128   	ld e, ixl
000134  FD 5C             0129   	ld e, iyh
000136  FD 5D             0130   	ld e, iyl
000138  DD 7E 05          0131   	ld a, (ix+5)
00013B  DD 46 05          0132   	ld b, (ix+5)
00013E  DD 4E 05          0133   	ld c, (ix+5)
000141  DD 56 05          0134   	ld d, (ix+5)
000144  DD 5E 05          0135   	ld e, (ix+5)
000147  DD 66 05          0136   	ld h, (ix+5)
00014A  DD 6E 05          0137   	ld l, (ix+5)
00014D  FD 7E 05          0138   	ld a, (iy+5)
000150  FD 46 05          0139   	ld b, (iy+5)
000153  FD 4E 05          0140   	ld c, (iy+5)
000156  FD 56 05          0141   	ld d, (iy+5)
000159  FD 5E 05          0142   	ld e, (iy+5)
00015C  FD 66 05          0143   	ld h, (iy+5)
00015F  FD 6E 05          0144   	ld l, (iy+5)
000162  3E 05             0145   	ld a, 5
000164  06 05             0146   	ld b, 5
000166  0E 05             0147   	ld c, 5
000168  16 05             0148   	ld d, 5
00016A  1E 05             0149   	ld e, 5
00016C  26 05             0150   	ld h, 5
00016E  2E 05             0151   	ld l, 5
000170  7F                0152   	ld a, a
000171  ED 07             0153   	ld bc, (hl)
000173  ED 17             0154   	ld de, (hl)
000175  ED 27             0155   	ld hl, (hl)
000177  DD 07 05          0156   	ld bc, (ix+5)
00017A  DD 17 05          0157   	ld de, (ix+5)
00017D  DD 27 05          0158   	ld hl, (ix+5)
000180  FD 07 05          0159   	ld bc, (iy+5)
000183  FD 17 05          0160   	ld de, (iy+5)
000186  FD 27 05          0161   	ld hl, (iy+5)
000189  01 CC BB AA       0162   	ld bc, $aabbcc
00018D  11 CC BB AA       0163   	ld de, $aabbcc
000191  21 CC BB AA       0164   	ld hl, $aabbcc
000195  ED 4B CC BB AA    0165   	ld bc, ($aabbcc)
00019A  ED 5B CC BB AA    0166   	ld de, ($aabbcc)
00019F  2A CC BB AA       0167   	ld hl, ($aabbcc)
0001A3  02                0168   	ld (bc), a
0001A4  12                0169   	ld (de), a
0001A5  77                0170   	ld (hl), a
0001A6  F9                0171   	ld sp, hl
0001A7  DD F9             0172   	ld sp, ix
0001A9  FD F9             0173   	ld sp, iy
0001AB  31 CC BB AA       0174   	ld sp, $aabbcc
0001AF  ED 7B CC BB AA    0175   	ld sp, ($aabbcc)
0001B4  ED A8             0176   	ldd
0001B6  ED B8             0177   	lddr
0001B8  ED A0             0178   	ldi
0001BA  ED B0             0179   	ldir
0001BC  ED 32 05          0180   	lea ix, ix+5
0001BF  ED 55 05          0181   	lea iy, ix+5
0001C2  ED 54 05          0182   	lea ix, iy+5
0001C5  ED 33 05          0183   	lea iy, iy+5
0001C8  ED 02 05          0184   	lea bc, ix+5
0001CB  ED 12 05          0185   	lea de, ix+5
0001CE  ED 22 05          0186   	lea hl, ix+5
0001D1  ED 03 05          0187   	lea bc, iy+5
0001D4  ED 13 05          0188   	lea de, iy+5
0001D7  ED 23 05          0189   	lea hl, iy+5
0001DA                    0190   
