Zilog eZ80 Macro Assembler Version 4.3 (19073001) RELISTED01-Mar-23     14:26:44     page:   1


PC     Object              I  Line    Source 
                           A     1    ; Zilog eZ80 ANSI C Compiler Release 3.4
                           A     2    ; -nomodsect -optsize -noreduceopt -nopadbranch
                           A     3    ; -peephole -globalopt -localcse -const=ROM 
                           A     4    	FILE	"..\instruction.c"
                           A     5    	.assume ADL=1
                           A     6    .DEBUG "C"
                           A     7    	SEGMENT CODE
                           A     8    .BEGREC "fmt_type",19
                           A     9    .DEFINE "status"
                           A    10    .VALUE 0
                           A    11    .CLASS 8
                           A    12    .TYPE 12
                           A    13    .ENDEF
                           A    14    .DEFINE "flags"
                           A    15    .VALUE 1
                           A    16    .CLASS 8
                           A    17    .TYPE 12
                           A    18    .ENDEF
                           A    19    .DEFINE "size"
                           A    20    .VALUE 2
                           A    21    .CLASS 8
                           A    22    .TYPE 2
                           A    23    .ENDEF
                           A    24    .DEFINE "chr"
                           A    25    .VALUE 3
                           A    26    .CLASS 8
                           A    27    .TYPE 2
                           A    28    .ENDEF
                           A    29    .DEFINE "type"
                           A    30    .VALUE 4
                           A    31    .CLASS 8
                           A    32    .TYPE 2
                           A    33    .ENDEF
                           A    34    .DEFINE "field_width"
                           A    35    .VALUE 5
                           A    36    .CLASS 8
                           A    37    .TYPE 2
                           A    38    .ENDEF
                           A    39    .DEFINE "precision"
                           A    40    .VALUE 6
                           A    41    .CLASS 8
                           A    42    .TYPE 2
                           A    43    .ENDEF
                           A    44    .DEFINE "set_begin"
                           A    45    .VALUE 7
                           A    46    .CLASS 8
                           A    47    .TYPE 34
                           A    48    .ENDEF
                           A    49    .DEFINE "set_end"
                           A    50    .VALUE 10
                           A    51    .CLASS 8
                           A    52    .TYPE 34
                           A    53    .ENDEF
                           A    54    .DEFINE "pad_whole"
                           A    55    .VALUE 13
                           A    56    .CLASS 8
                           A    57    .TYPE 12
                           A    58    .ENDEF
                           A    59    .DEFINE "pad_pre_fract"
                           A    60    .VALUE 14
                           A    61    .CLASS 8
                           A    62    .TYPE 12
                           A    63    .ENDEF
                           A    64    .DEFINE "pad_post_fract"
                           A    65    .VALUE 15
                           A    66    .CLASS 8
                           A    67    .TYPE 12
                           A    68    .ENDEF
                           A    69    .DEFINE "pad_at"
                           A    70    .VALUE 16
                           A    71    .CLASS 8
                           A    72    .TYPE 34
                           A    73    .ENDEF
                           A    74    .ENDREC "fmt_type"
                           A    75    .BEGREC "flt_info",12
                           A    76    .DEFINE "flags"
                           A    77    .VALUE 0
                           A    78    .CLASS 8
                           A    79    .TYPE 12
                           A    80    .ENDEF
                           A    81    .DEFINE "exp"
                           A    82    .VALUE 1
                           A    83    .CLASS 8
                           A    84    .TYPE 2
                           A    85    .ENDEF
                           A    86    .DEFINE "digits"
                           A    87    .VALUE 2
                           A    88    .CLASS 8
                           A    89    .DIM 10
                           A    90    .TYPE 108
                           A    91    .ENDEF
                           A    92    .ENDREC "flt_info"
                           A    93    .BEGREC "NONAME0",6
                           A    94    .DEFINE "quot"
                           A    95    .VALUE 0
                           A    96    .CLASS 8
                           A    97    .TYPE 4
                           A    98    .ENDEF
                           A    99    .DEFINE "rem"
                           A   100    .VALUE 3
                           A   101    .CLASS 8
                           A   102    .TYPE 4
                           A   103    .ENDEF
                           A   104    .ENDREC "NONAME0"
                           A   105    .BEGREC "NONAME1",8
                           A   106    .DEFINE "quot"
                           A   107    .VALUE 0
                           A   108    .CLASS 8
                           A   109    .TYPE 5
                           A   110    .ENDEF
                           A   111    .DEFINE "rem"
                           A   112    .VALUE 4
                           A   113    .CLASS 8
                           A   114    .TYPE 5
                           A   115    .ENDEF
                           A   116    .ENDREC "NONAME1"
                           A   117    .BEGREC "header",6
                           A   118    .DEFINE "s"
                           A   119    .VALUE 0
                           A   120    .CLASS 11
                           A   121    .TAG "NONAME2"
                           A   122    .TYPE 8
                           A   123    .ENDEF
                           A   124    .DEFINE "x"
                           A   125    .VALUE 0
                           A   126    .CLASS 11
                           A   127    .TYPE 2
                           A   128    .ENDEF
                           A   129    .ENDREC "header"
                           A   130    .BEGREC "NONAME2",6
                           A   131    .DEFINE "ptr"
                           A   132    .VALUE 0
                           A   133    .CLASS 8
                           A   134    .TAG "header"
                           A   135    .TYPE 40
                           A   136    .ENDEF
                           A   137    .DEFINE "size"
                           A   138    .VALUE 3
                           A   139    .CLASS 8
                           A   140    .TYPE 14
                           A   141    .ENDEF
                           A   142    .ENDREC "NONAME2"
                           A   143    .BEGREC "NONAME3",16
                           A   144    .DEFINE "reg"
                           A   145    .VALUE 0
                           A   146    .CLASS 8
                           A   147    .TYPE 4
                           A   148    .ENDEF
                           A   149    .DEFINE "reg_index"
                           A   150    .VALUE 3
                           A   151    .CLASS 8
                           A   152    .TYPE 12
                           A   153    .ENDEF
                           A   154    .DEFINE "indirect"
                           A   155    .VALUE 4
                           A   156    .CLASS 8
                           A   157    .TYPE 12
                           A   158    .ENDEF
                           A   159    .DEFINE "cc"
                           A   160    .VALUE 5
                           A   161    .CLASS 8
                           A   162    .TYPE 12
                           A   163    .ENDEF
                           A   164    .DEFINE "cc_index"
                           A   165    .VALUE 6
                           A   166    .CLASS 8
                           A   167    .TYPE 12
                           A   168    .ENDEF
                           A   169    .DEFINE "displacement"
                           A   170    .VALUE 7
                           A   171    .CLASS 8
                           A   172    .TYPE 3
                           A   173    .ENDEF
                           A   174    .DEFINE "displacement_provided"
                           A   175    .VALUE 9
                           A   176    .CLASS 8
                           A   177    .TYPE 12
                           A   178    .ENDEF
                           A   179    .DEFINE "immediate_provided"
                           A   180    .VALUE 10
                           A   181    .CLASS 8
                           A   182    .TYPE 12
                           A   183    .ENDEF
                           A   184    .DEFINE "immediate"
                           A   185    .VALUE 11
                           A   186    .CLASS 8
                           A   187    .TYPE 5
                           A   188    .ENDEF
                           A   189    .DEFINE "wasLabel"
                           A   190    .VALUE 15
                           A   191    .CLASS 8
                           A   192    .TYPE 12
                           A   193    .ENDEF
                           A   194    .ENDREC "NONAME3"
                           A   195    .BEGREC "NONAME4",4
                           A   196    .DEFINE "suffix"
                           A   197    .VALUE 0
                           A   198    .CLASS 8
                           A   199    .TYPE 12
                           A   200    .ENDEF
                           A   201    .DEFINE "prefix1"
                           A   202    .VALUE 1
                           A   203    .CLASS 8
                           A   204    .TYPE 12
                           A   205    .ENDEF
                           A   206    .DEFINE "prefix2"
                           A   207    .VALUE 2
                           A   208    .CLASS 8
                           A   209    .TYPE 12
                           A   210    .ENDEF
                           A   211    .DEFINE "opcode"
                           A   212    .VALUE 3
                           A   213    .CLASS 8
                           A   214    .TYPE 12
                           A   215    .ENDEF
                           A   216    .ENDREC "NONAME4"
                           A   217    .BEGREC "NONAME5",16
                           A   218    .DEFINE "operandA"
                           A   219    .VALUE 0
                           A   220    .CLASS 8
                           A   221    .TYPE 4
                           A   222    .ENDEF
                           A   223    .DEFINE "operandB"
                           A   224    .VALUE 3
                           A   225    .CLASS 8
                           A   226    .TYPE 4
                           A   227    .ENDEF
                           A   228    .DEFINE "ddfdpermitted"
                           A   229    .VALUE 6
                           A   230    .CLASS 8
                           A   231    .TYPE 12
                           A   232    .ENDEF
                           A   233    .DEFINE "transformA"
                           A   234    .VALUE 7
                           A   235    .CLASS 8
                           A   236    .TYPE 4
                           A   237    .ENDEF
                           A   238    .DEFINE "transformB"
                           A   239    .VALUE 10
                           A   240    .CLASS 8
                           A   241    .TYPE 4
                           A   242    .ENDEF
                           A   243    .DEFINE "prefix"
                           A   244    .VALUE 13
                           A   245    .CLASS 8
                           A   246    .TYPE 12
                           A   247    .ENDEF
                           A   248    .DEFINE "opcode"
                           A   249    .VALUE 14
                           A   250    .CLASS 8
                           A   251    .TYPE 12
                           A   252    .ENDEF
                           A   253    .DEFINE "adl"
                           A   254    .VALUE 15
                           A   255    .CLASS 8
                           A   256    .TYPE 12
                           A   257    .ENDEF
                           A   258    .ENDREC "NONAME5"
                           A   259    .BEGREC "NONAME6",17
                           A   260    .DEFINE "name"
                           A   261    .VALUE 0
                           A   262    .CLASS 8
                           A   263    .DIM 8
                           A   264    .TYPE 98
                           A   265    .ENDEF
                           A   266    .DEFINE "type"
                           A   267    .VALUE 8
                           A   268    .CLASS 8
                           A   269    .TYPE 12
                           A   270    .ENDEF
                           A   271    .DEFINE "asmtype"
                           A   272    .VALUE 9
                           A   273    .CLASS 8
                           A   274    .TYPE 12
                           A   275    .ENDEF
                           A   276    .DEFINE "listnumber"
                           A   277    .VALUE 10
                           A   278    .CLASS 8
                           A   279    .TYPE 12
                           A   280    .ENDEF
                           A   281    .DEFINE "list"
                           A   282    .VALUE 11
                           A   283    .CLASS 8
                           A   284    .TAG "NONAME5"
                           A   285    .TYPE 40
                           A   286    .ENDEF
                           A   287    .DEFINE "asmargument"
                           A   288    .VALUE 14
                           A   289    .CLASS 8
                           A   290    .TYPE 4
                           A   291    .ENDEF
                           A   292    .ENDREC "NONAME6"
                           A   293    .BEGREC "NONAME7",6
                           A   294    .DEFINE "type"
                           A   295    .VALUE 0
                           A   296    .CLASS 8
                           A   297    .TYPE 4
                           A   298    .ENDEF
                           A   299    .DEFINE "match"
                           A   300    .VALUE 3
                           A   301    .CLASS 8
                           A   302    .TYPE 556
                           A   303    .ENDEF
                           A   304    .ENDREC "NONAME7"
                           A   305    .BEGREC "NONAME8",7
                           A   306    .DEFINE "name"
                           A   307    .VALUE 0
                           A   308    .CLASS 8
                           A   309    .TYPE 34
                           A   310    .ENDEF
                           A   311    .DEFINE "address"
                           A   312    .VALUE 3
                           A   313    .CLASS 8
                           A   314    .TYPE 5
                           A   315    .ENDEF
                           A   316    .ENDREC "NONAME8"
                           A   317    .BEGREC "NONAME9",5
                           A   318    .DEFINE "defined"
                           A   319    .VALUE 0
                           A   320    .CLASS 8
                           A   321    .TYPE 12
                           A   322    .ENDEF
                           A   323    .DEFINE "address"
                           A   324    .VALUE 1
                           A   325    .CLASS 8
                           A   326    .TYPE 5
                           A   327    .ENDEF
                           A   328    .ENDREC "NONAME9"
                           A   329    .BEGREC "NONAME10",261
                           A   330    .DEFINE "start"
                           A   331    .VALUE 0
                           A   332    .CLASS 8
                           A   333    .DIM 256
                           A   334    .TYPE 98
                           A   335    .ENDEF
                           A   336    .DEFINE "length"
                           A   337    .VALUE 256
                           A   338    .CLASS 8
                           A   339    .TYPE 12
                           A   340    .ENDEF
                           A   341    .DEFINE "next"
                           A   342    .VALUE 257
                           A   343    .CLASS 8
                           A   344    .TYPE 34
                           A   345    .ENDEF
                           A   346    .DEFINE "terminator"
                           A   347    .VALUE 260
                           A   348    .CLASS 8
                           A   349    .TYPE 2
                           A   350    .ENDEF
                           A   351    .ENDREC "NONAME10"
                           A   352    .BEGREC "NONAME11",264
                           A   353    .DEFINE "current_instruction"
                           A   354    .VALUE 0
                           A   355    .CLASS 8
                           A   356    .TAG "NONAME6"
                           A   357    .TYPE 40
                           A   358    .ENDEF
                           A   359    .DEFINE "next"
                           A   360    .VALUE 3
                           A   361    .CLASS 8
                           A   362    .TYPE 34
                           A   363    .ENDEF
                           A   364    .DEFINE "label"
                           A   365    .VALUE 6
                           A   366    .CLASS 8
                           A   367    .DIM 32
                           A   368    .TYPE 98
                           A   369    .ENDEF
                           A   370    .DEFINE "mnemonic"
                           A   371    .VALUE 38
                           A   372    .CLASS 8
                           A   373    .DIM 16
                           A   374    .TYPE 98
                           A   375    .ENDEF
                           A   376    .DEFINE "suffix"
                           A   377    .VALUE 54
                           A   378    .CLASS 8
                           A   379    .DIM 16
                           A   380    .TYPE 98
                           A   381    .ENDEF
                           A   382    .DEFINE "operand1"
                           A   383    .VALUE 70
                           A   384    .CLASS 8
                           A   385    .DIM 32
                           A   386    .TYPE 98
                           A   387    .ENDEF
                           A   388    .DEFINE "operand2"
                           A   389    .VALUE 102
                           A   390    .CLASS 8
                           A   391    .DIM 32
                           A   392    .TYPE 98
                           A   393    .ENDEF
                           A   394    .DEFINE "comment"
                           A   395    .VALUE 134
                           A   396    .CLASS 8
                           A   397    .DIM 128
                           A   398    .TYPE 98
                           A   399    .ENDEF
                           A   400    .DEFINE "size"
                           A   401    .VALUE 262
                           A   402    .CLASS 8
                           A   403    .TYPE 13
                           A   404    .ENDEF
                           A   405    .ENDREC "NONAME11"
                           A   406    ;    1	#include <stdio.h>
                           A   407    ;    2	#include <string.h>
                           A   408    ;    3	#include <ctype.h>
                           A   409    ;    4	#include <stdlib.h>
                           A   410    ;    5	
                           A   411    ;    6	#include "instruction.h"
                           A   412    ;    7	#include "assemble.h"
                           A   413    ;    8	#include "utils.h"
                           A   414    ;    9	#include "globals.h"
                           A   415    ;   10	#include "stdint.h"
                           A   416    ;   11	
                           A   417    ;   12	bool none_match(operand *op) {
043A83                     A   418    _none_match:
                           A   419    .DEFINE "_none_match"
                           A   420    
                           A   421    .VALUE _none_match
                           A   422    
                           A   423    .CLASS 2
                           A   424    
                           A   425    .TYPE 76
                           A   426    
                           A   427    .ENDEF
                           A   428    
                           A   429    .BEGFUNC "none_match",12,"_none_match"
                           A   430    
                           A   431    .LINE 12
                           A   432    
                           A   433    .DEFINE "op"
                           A   434    
                           A   435    .CLASS 65
                           A   436    
                           A   437    .VALUE 6
                           A   438    
                           A   439    .TAG "NONAME3"
                           A   440    
                           A   441    .TYPE 40
                           A   442    
                           A   443    .ENDEF
                           A   444    
043A83 DDE5                A   445    	PUSH	IX
043A85 DD210000 00         A   446    	LD	IX,0
043A8A DD39                A   447    	ADD	IX,SP
043A8C C5                  A   448    	PUSH	BC
043A8D C5                  A   449    	PUSH	BC
                           A   450    ;   13	    return ((op->reg == R_NONE) && (op-
                           A   451    .LINE 13
                           A   452    
043A8E DD3106              A   453    	LD	IY,(IX+%6)
043A91 FD2700              A   454    	LD	HL,(IY+%0)
043A94 CD E3 6A 04         A   455    	CALL	__icmpzero
043A98 20 43               A   456    	JR	NZ,L_6
043A9A DD3106              A   457    	LD	IY,(IX+%6)
043A9D FD7E05              A   458    	LD	A,(IY+%5)
043AA0 B7                  A   459    	OR	A,A
043AA1 20 09               A   460    	JR	NZ,L_1
043AA3 01010000            A   461    	LD	BC,1
043AA7 DD0FFD              A   462    	LD	(IX+%FFFFFFFD),BC
043AAA 18 07               A   463    	JR	L_2
043AAC                     A   464    L_1:
043AAC 01000000            A   465    	LD	BC,0
043AB0 DD0FFD              A   466    	LD	(IX+%FFFFFFFD),BC
043AB3                     A   467    L_2:
043AB3 DD3106              A   468    	LD	IY,(IX+%6)
043AB6 FD7E0A              A   469    	LD	A,(IY+%A)
043AB9 B7                  A   470    	OR	A,A
043ABA 20 04               A   471    	JR	NZ,L__3
043ABC 0601                A   472    	LD	B,%1
043ABE 18 02               A   473    	JR	L__4
043AC0                     A   474    L__3:
043AC0 0600                A   475    	LD	B,%0
043AC2                     A   476    L__4:
043AC2 78                  A   477    	LD	A,B
043AC3 17ED62              A   478    	SEXT	HL
043AC6 68                  A   479    	LD	L,B
043AC7 DD07FD              A   480    	LD	BC,(IX+%FFFFFFFD)
043ACA CD 96 6E 04         A   481    	CALL	__iand
043ACE CD E3 6A 04         A   482    	CALL	__icmpzero
043AD2 28 09               A   483    	JR	Z,L_6
                           A   484    ;   14	}
                           A   485    .LINE 14
                           A   486    
043AD4 01010000            A   487    	LD	BC,1
043AD8 DD0FFA              A   488    	LD	(IX+%FFFFFFFA),BC
043ADB 18 07               A   489    	JR	L_7
043ADD                     A   490    L_6:
043ADD 01000000            A   491    	LD	BC,0
043AE1 DD0FFA              A   492    	LD	(IX+%FFFFFFFA),BC
043AE4                     A   493    L_7:
043AE4 DD7EFA              A   494    	LD	A,(IX+%FFFFFFFA)
043AE7 DDF9                A   495    	LD	SP,IX
043AE9 DDE1                A   496    	POP	IX
043AEB C9                  A   497    	RET	
                           A   498    
                           A   499    
                           A   500    ;**************************** _none_match *****
                           A   501    ;Name                         Addr/Register   S
                           A   502    ;temp8                                 IX-6    
                           A   503    ;temp3                                 IX-3    
                           A   504    ;op                                    IX+6    
                           A   505    
                           A   506    
                           A   507    ; Stack Frame Size: 15 (bytes)
                           A   508    ;       Spill Code: 0 (instruction)
                           A   509    
                           A   510    
                           A   511    .ENDFUNC "none_match",14,"_none_match"
                           A   512    ;   15	bool cc_match(operand *op) {
043AEC                     A   513    _cc_match:
                           A   514    .DEFINE "_cc_match"
                           A   515    
                           A   516    .VALUE _cc_match
                           A   517    
                           A   518    .CLASS 2
                           A   519    
                           A   520    .TYPE 76
                           A   521    
                           A   522    .ENDEF
                           A   523    
                           A   524    .BEGFUNC "cc_match",15,"_cc_match"
                           A   525    
                           A   526    .LINE 15
                           A   527    
                           A   528    .DEFINE "op"
                           A   529    
                           A   530    .CLASS 65
                           A   531    
                           A   532    .VALUE 6
                           A   533    
                           A   534    .TAG "NONAME3"
                           A   535    
                           A   536    .TYPE 40
                           A   537    
                           A   538    .ENDEF
                           A   539    
043AEC DDE5                A   540    	PUSH	IX
043AEE DD210000 00         A   541    	LD	IX,0
043AF3 DD39                A   542    	ADD	IX,SP
                           A   543    ;   16	    return op->cc;
                           A   544    .LINE 16
                           A   545    
043AF5 DD3106              A   546    	LD	IY,(IX+%6)
043AF8 FD7E05              A   547    	LD	A,(IY+%5)
                           A   548    ;   17	}
                           A   549    .LINE 17
                           A   550    
043AFB DDF9                A   551    	LD	SP,IX
043AFD DDE1                A   552    	POP	IX
043AFF C9                  A   553    	RET	
                           A   554    
                           A   555    
                           A   556    ;**************************** _cc_match *******
                           A   557    ;Name                         Addr/Register   S
                           A   558    ;op                                    IX+6    
                           A   559    
                           A   560    
                           A   561    ; Stack Frame Size: 9 (bytes)
                           A   562    ;       Spill Code: 0 (instruction)
                           A   563    
                           A   564    
                           A   565    .ENDFUNC "cc_match",17,"_cc_match"
                           A   566    ;   18	bool ir_match(operand *op) {
043B00                     A   567    _ir_match:
                           A   568    .DEFINE "_ir_match"
                           A   569    
                           A   570    .VALUE _ir_match
                           A   571    
                           A   572    .CLASS 2
                           A   573    
                           A   574    .TYPE 76
                           A   575    
                           A   576    .ENDEF
                           A   577    
                           A   578    .BEGFUNC "ir_match",18,"_ir_match"
                           A   579    
                           A   580    .LINE 18
                           A   581    
                           A   582    .DEFINE "op"
                           A   583    
                           A   584    .CLASS 65
                           A   585    
                           A   586    .VALUE 6
                           A   587    
                           A   588    .TAG "NONAME3"
                           A   589    
                           A   590    .TYPE 40
                           A   591    
                           A   592    .ENDEF
                           A   593    
043B00 DDE5                A   594    	PUSH	IX
043B02 DD210000 00         A   595    	LD	IX,0
043B07 DD39                A   596    	ADD	IX,SP
043B09 C5                  A   597    	PUSH	BC
043B0A C5                  A   598    	PUSH	BC
                           A   599    ;   19	    return ((op->reg >= R_IXH) && (op->
                           A   600    .LINE 19
                           A   601    
043B0B DD3106              A   602    	LD	IY,(IX+%6)
043B0E FD0700              A   603    	LD	BC,(IY+%0)
043B11 DD0FFD              A   604    	LD	(IX+%FFFFFFFD),BC
043B14 010F0000            A   605    	LD	BC,15
043B18 DD27FD              A   606    	LD	HL,(IX+%FFFFFFFD)
043B1B B7                  A   607    	OR	A,A
043B1C ED42                A   608    	SBC	HL,BC
043B1E FA 46 3B 04         A   609    	JP	M,L_14
043B22 DD07FD              A   610    	LD	BC,(IX+%FFFFFFFD)
043B25 21120000            A   611    	LD	HL,18
043B29 B7                  A   612    	OR	A,A
043B2A ED42                A   613    	SBC	HL,BC
043B2C CD 1D 64 04         A   614    	CALL	__setflag
043B30 FA 46 3B 04         A   615    	JP	M,L_14
043B34 DD3106              A   616    	LD	IY,(IX+%6)
043B37 FD7E04              A   617    	LD	A,(IY+%4)
043B3A B7                  A   618    	OR	A,A
043B3B 20 09               A   619    	JR	NZ,L_14
                           A   620    ;   20	}
                           A   621    .LINE 20
                           A   622    
043B3D 01010000            A   623    	LD	BC,1
043B41 DD0FFA              A   624    	LD	(IX+%FFFFFFFA),BC
043B44 18 07               A   625    	JR	L_15
043B46                     A   626    L_14:
043B46 01000000            A   627    	LD	BC,0
043B4A DD0FFA              A   628    	LD	(IX+%FFFFFFFA),BC
043B4D                     A   629    L_15:
043B4D DD7EFA              A   630    	LD	A,(IX+%FFFFFFFA)
043B50 DDF9                A   631    	LD	SP,IX
043B52 DDE1                A   632    	POP	IX
043B54 C9                  A   633    	RET	
                           A   634    
                           A   635    
                           A   636    ;**************************** _ir_match *******
                           A   637    ;Name                         Addr/Register   S
                           A   638    ;temp16                                IX-6    
                           A   639    ;G_0                                   IX-3    
                           A   640    ;op                                    IX+6    
                           A   641    
                           A   642    
                           A   643    ; Stack Frame Size: 15 (bytes)
                           A   644    ;       Spill Code: 0 (instruction)
                           A   645    
                           A   646    
                           A   647    .ENDFUNC "ir_match",20,"_ir_match"
                           A   648    ;   21	bool ixy_match(operand *op) {
043B55                     A   649    _ixy_match:
                           A   650    .DEFINE "_ixy_match"
                           A   651    
                           A   652    .VALUE _ixy_match
                           A   653    
                           A   654    .CLASS 2
                           A   655    
                           A   656    .TYPE 76
                           A   657    
                           A   658    .ENDEF
                           A   659    
                           A   660    .BEGFUNC "ixy_match",21,"_ixy_match"
                           A   661    
                           A   662    .LINE 21
                           A   663    
                           A   664    .DEFINE "op"
                           A   665    
                           A   666    .CLASS 65
                           A   667    
                           A   668    .VALUE 6
                           A   669    
                           A   670    .TAG "NONAME3"
                           A   671    
                           A   672    .TYPE 40
                           A   673    
                           A   674    .ENDEF
                           A   675    
043B55 DDE5                A   676    	PUSH	IX
043B57 DD210000 00         A   677    	LD	IX,0
043B5C DD39                A   678    	ADD	IX,SP
043B5E C5                  A   679    	PUSH	BC
043B5F C5                  A   680    	PUSH	BC
                           A   681    ;   22	    return (((op->reg == R_IX) || (op->
                           A   682    .LINE 22
                           A   683    
043B60 DD3106              A   684    	LD	IY,(IX+%6)
043B63 FD0700              A   685    	LD	BC,(IY+%0)
043B66 DD0FFD              A   686    	LD	(IX+%FFFFFFFD),BC
043B69 010D0000            A   687    	LD	BC,13
043B6D DD27FD              A   688    	LD	HL,(IX+%FFFFFFFD)
043B70 B7                  A   689    	OR	A,A
043B71 ED42                A   690    	SBC	HL,BC
043B73 28 0C               A   691    	JR	Z,L_19
043B75 010E0000            A   692    	LD	BC,14
043B79 DD27FD              A   693    	LD	HL,(IX+%FFFFFFFD)
043B7C B7                  A   694    	OR	A,A
043B7D ED42                A   695    	SBC	HL,BC
043B7F 20 1B               A   696    	JR	NZ,L_22
043B81                     A   697    L_19:
043B81 DD3106              A   698    	LD	IY,(IX+%6)
043B84 FD7E04              A   699    	LD	A,(IY+%4)
043B87 B7                  A   700    	OR	A,A
043B88 20 12               A   701    	JR	NZ,L_22
043B8A DD3106              A   702    	LD	IY,(IX+%6)
043B8D FD7E09              A   703    	LD	A,(IY+%9)
043B90 B7                  A   704    	OR	A,A
043B91 20 09               A   705    	JR	NZ,L_22
                           A   706    ;   23	}
                           A   707    .LINE 23
                           A   708    
043B93 01010000            A   709    	LD	BC,1
043B97 DD0FFA              A   710    	LD	(IX+%FFFFFFFA),BC
043B9A 18 07               A   711    	JR	L_23
043B9C                     A   712    L_22:
043B9C 01000000            A   713    	LD	BC,0
043BA0 DD0FFA              A   714    	LD	(IX+%FFFFFFFA),BC
043BA3                     A   715    L_23:
043BA3 DD7EFA              A   716    	LD	A,(IX+%FFFFFFFA)
043BA6 DDF9                A   717    	LD	SP,IX
043BA8 DDE1                A   718    	POP	IX
043BAA C9                  A   719    	RET	
                           A   720    
                           A   721    
                           A   722    ;**************************** _ixy_match ******
                           A   723    ;Name                         Addr/Register   S
                           A   724    ;temp24                                IX-6    
                           A   725    ;G_1                                   IX-3    
                           A   726    ;op                                    IX+6    
                           A   727    
                           A   728    
                           A   729    ; Stack Frame Size: 15 (bytes)
                           A   730    ;       Spill Code: 0 (instruction)
                           A   731    
                           A   732    
                           A   733    .ENDFUNC "ixy_match",23,"_ixy_match"
                           A   734    ;   24	bool ixyd_match(operand *op) {
043BAB                     A   735    _ixyd_match:
                           A   736    .DEFINE "_ixyd_match"
                           A   737    
                           A   738    .VALUE _ixyd_match
                           A   739    
                           A   740    .CLASS 2
                           A   741    
                           A   742    .TYPE 76
                           A   743    
                           A   744    .ENDEF
                           A   745    
                           A   746    .BEGFUNC "ixyd_match",24,"_ixyd_match"
                           A   747    
                           A   748    .LINE 24
                           A   749    
                           A   750    .DEFINE "op"
                           A   751    
                           A   752    .CLASS 65
                           A   753    
                           A   754    .VALUE 6
                           A   755    
                           A   756    .TAG "NONAME3"
                           A   757    
                           A   758    .TYPE 40
                           A   759    
                           A   760    .ENDEF
                           A   761    
043BAB DDE5                A   762    	PUSH	IX
043BAD DD210000 00         A   763    	LD	IX,0
043BB2 DD39                A   764    	ADD	IX,SP
043BB4 C5                  A   765    	PUSH	BC
043BB5 C5                  A   766    	PUSH	BC
                           A   767    ;   25	    return (((op->reg == R_IX) || (op->
                           A   768    .LINE 25
                           A   769    
043BB6 DD3106              A   770    	LD	IY,(IX+%6)
043BB9 FD0700              A   771    	LD	BC,(IY+%0)
043BBC DD0FFD              A   772    	LD	(IX+%FFFFFFFD),BC
043BBF 010D0000            A   773    	LD	BC,13
043BC3 DD27FD              A   774    	LD	HL,(IX+%FFFFFFFD)
043BC6 B7                  A   775    	OR	A,A
043BC7 ED42                A   776    	SBC	HL,BC
043BC9 28 0C               A   777    	JR	Z,L_27
043BCB 010E0000            A   778    	LD	BC,14
043BCF DD27FD              A   779    	LD	HL,(IX+%FFFFFFFD)
043BD2 B7                  A   780    	OR	A,A
043BD3 ED42                A   781    	SBC	HL,BC
043BD5 20 1B               A   782    	JR	NZ,L_30
043BD7                     A   783    L_27:
043BD7 DD3106              A   784    	LD	IY,(IX+%6)
043BDA FD7E04              A   785    	LD	A,(IY+%4)
043BDD B7                  A   786    	OR	A,A
043BDE 20 12               A   787    	JR	NZ,L_30
043BE0 DD3106              A   788    	LD	IY,(IX+%6)
043BE3 FD7E09              A   789    	LD	A,(IY+%9)
043BE6 B7                  A   790    	OR	A,A
043BE7 28 09               A   791    	JR	Z,L_30
                           A   792    ;   26	}
                           A   793    .LINE 26
                           A   794    
043BE9 01010000            A   795    	LD	BC,1
043BED DD0FFA              A   796    	LD	(IX+%FFFFFFFA),BC
043BF0 18 07               A   797    	JR	L_31
043BF2                     A   798    L_30:
043BF2 01000000            A   799    	LD	BC,0
043BF6 DD0FFA              A   800    	LD	(IX+%FFFFFFFA),BC
043BF9                     A   801    L_31:
043BF9 DD7EFA              A   802    	LD	A,(IX+%FFFFFFFA)
043BFC DDF9                A   803    	LD	SP,IX
043BFE DDE1                A   804    	POP	IX
043C00 C9                  A   805    	RET	
                           A   806    
                           A   807    
                           A   808    ;**************************** _ixyd_match *****
                           A   809    ;Name                         Addr/Register   S
                           A   810    ;temp32                                IX-6    
                           A   811    ;G_2                                   IX-3    
                           A   812    ;op                                    IX+6    
                           A   813    
                           A   814    
                           A   815    ; Stack Frame Size: 15 (bytes)
                           A   816    ;       Spill Code: 0 (instruction)
                           A   817    
                           A   818    
                           A   819    .ENDFUNC "ixyd_match",26,"_ixyd_match"
                           A   820    ;   27	bool indirect_ixyd_match(operand *op) {
043C01                     A   821    _indirect_ixyd_match:
                           A   822    .DEFINE "_indirect_ixyd_match"
                           A   823    
                           A   824    .VALUE _indirect_ixyd_match
                           A   825    
                           A   826    .CLASS 2
                           A   827    
                           A   828    .TYPE 76
                           A   829    
                           A   830    .ENDEF
                           A   831    
                           A   832    .BEGFUNC "indirect_ixyd_match",27,"_indirect_ix
                           A   833    
                           A   834    .LINE 27
                           A   835    
                           A   836    .DEFINE "op"
                           A   837    
                           A   838    .CLASS 65
                           A   839    
                           A   840    .VALUE 6
                           A   841    
                           A   842    .TAG "NONAME3"
                           A   843    
                           A   844    .TYPE 40
                           A   845    
                           A   846    .ENDEF
                           A   847    
043C01 DDE5                A   848    	PUSH	IX
043C03 DD210000 00         A   849    	LD	IX,0
043C08 DD39                A   850    	ADD	IX,SP
043C0A C5                  A   851    	PUSH	BC
043C0B C5                  A   852    	PUSH	BC
                           A   853    ;   28	    return (((op->reg == R_IX) || (op->
                           A   854    .LINE 28
                           A   855    
043C0C DD3106              A   856    	LD	IY,(IX+%6)
043C0F FD0700              A   857    	LD	BC,(IY+%0)
043C12 DD0FFD              A   858    	LD	(IX+%FFFFFFFD),BC
043C15 010D0000            A   859    	LD	BC,13
043C19 DD27FD              A   860    	LD	HL,(IX+%FFFFFFFD)
043C1C B7                  A   861    	OR	A,A
043C1D ED42                A   862    	SBC	HL,BC
043C1F 28 0C               A   863    	JR	Z,L_35
043C21 010E0000            A   864    	LD	BC,14
043C25 DD27FD              A   865    	LD	HL,(IX+%FFFFFFFD)
043C28 B7                  A   866    	OR	A,A
043C29 ED42                A   867    	SBC	HL,BC
043C2B 20 12               A   868    	JR	NZ,L_37
043C2D                     A   869    L_35:
043C2D DD3106              A   870    	LD	IY,(IX+%6)
043C30 FD7E04              A   871    	LD	A,(IY+%4)
043C33 B7                  A   872    	OR	A,A
043C34 28 09               A   873    	JR	Z,L_37
                           A   874    ;   29	}
                           A   875    .LINE 29
                           A   876    
043C36 01010000            A   877    	LD	BC,1
043C3A DD0FFA              A   878    	LD	(IX+%FFFFFFFA),BC
043C3D 18 07               A   879    	JR	L_38
043C3F                     A   880    L_37:
043C3F 01000000            A   881    	LD	BC,0
043C43 DD0FFA              A   882    	LD	(IX+%FFFFFFFA),BC
043C46                     A   883    L_38:
043C46 DD7EFA              A   884    	LD	A,(IX+%FFFFFFFA)
043C49 DDF9                A   885    	LD	SP,IX
043C4B DDE1                A   886    	POP	IX
043C4D C9                  A   887    	RET	
                           A   888    
                           A   889    
                           A   890    ;**************************** _indirect_ixyd_ma
                           A   891    ;Name                         Addr/Register   S
                           A   892    ;temp39                                IX-6    
                           A   893    ;G_3                                   IX-3    
                           A   894    ;op                                    IX+6    
                           A   895    
                           A   896    
                           A   897    ; Stack Frame Size: 15 (bytes)
                           A   898    ;       Spill Code: 0 (instruction)
                           A   899    
                           A   900    
                           A   901    .ENDFUNC "indirect_ixyd_match",29,"_indirect_ix
                           A   902    ;   30	bool mmn_match(operand *op) {
043C4E                     A   903    _mmn_match:
                           A   904    .DEFINE "_mmn_match"
                           A   905    
                           A   906    .VALUE _mmn_match
                           A   907    
                           A   908    .CLASS 2
                           A   909    
                           A   910    .TYPE 76
                           A   911    
                           A   912    .ENDEF
                           A   913    
                           A   914    .BEGFUNC "mmn_match",30,"_mmn_match"
                           A   915    
                           A   916    .LINE 30
                           A   917    
                           A   918    .DEFINE "op"
                           A   919    
                           A   920    .CLASS 65
                           A   921    
                           A   922    .VALUE 6
                           A   923    
                           A   924    .TAG "NONAME3"
                           A   925    
                           A   926    .TYPE 40
                           A   927    
                           A   928    .ENDEF
                           A   929    
043C4E DDE5                A   930    	PUSH	IX
043C50 DD210000 00         A   931    	LD	IX,0
043C55 DD39                A   932    	ADD	IX,SP
043C57 C5                  A   933    	PUSH	BC
                           A   934    ;   31	    return (!(op->indirect) && (op->imm
                           A   935    .LINE 31
                           A   936    
043C58 DD3106              A   937    	LD	IY,(IX+%6)
043C5B FD7E04              A   938    	LD	A,(IY+%4)
043C5E B7                  A   939    	OR	A,A
043C5F 20 12               A   940    	JR	NZ,L_43
043C61 DD3106              A   941    	LD	IY,(IX+%6)
043C64 FD7E0A              A   942    	LD	A,(IY+%A)
043C67 B7                  A   943    	OR	A,A
043C68 28 09               A   944    	JR	Z,L_43
                           A   945    ;   32	}
                           A   946    .LINE 32
                           A   947    
043C6A 01010000            A   948    	LD	BC,1
043C6E DD0FFD              A   949    	LD	(IX+%FFFFFFFD),BC
043C71 18 07               A   950    	JR	L_44
043C73                     A   951    L_43:
043C73 01000000            A   952    	LD	BC,0
043C77 DD0FFD              A   953    	LD	(IX+%FFFFFFFD),BC
043C7A                     A   954    L_44:
043C7A DD7EFD              A   955    	LD	A,(IX+%FFFFFFFD)
043C7D DDF9                A   956    	LD	SP,IX
043C7F DDE1                A   957    	POP	IX
043C81 C9                  A   958    	RET	
                           A   959    
                           A   960    
                           A   961    ;**************************** _mmn_match ******
                           A   962    ;Name                         Addr/Register   S
                           A   963    ;temp45                                IX-3    
                           A   964    ;op                                    IX+6    
                           A   965    
                           A   966    
                           A   967    ; Stack Frame Size: 12 (bytes)
                           A   968    ;       Spill Code: 0 (instruction)
                           A   969    
                           A   970    
                           A   971    .ENDFUNC "mmn_match",32,"_mmn_match"
                           A   972    ;   33	bool indirect_mmn_match(operand *op) {
043C82                     A   973    _indirect_mmn_match:
                           A   974    .DEFINE "_indirect_mmn_match"
                           A   975    
                           A   976    .VALUE _indirect_mmn_match
                           A   977    
                           A   978    .CLASS 2
                           A   979    
                           A   980    .TYPE 76
                           A   981    
                           A   982    .ENDEF
                           A   983    
                           A   984    .BEGFUNC "indirect_mmn_match",33,"_indirect_mmn
                           A   985    
                           A   986    .LINE 33
                           A   987    
                           A   988    .DEFINE "op"
                           A   989    
                           A   990    .CLASS 65
                           A   991    
                           A   992    .VALUE 6
                           A   993    
                           A   994    .TAG "NONAME3"
                           A   995    
                           A   996    .TYPE 40
                           A   997    
                           A   998    .ENDEF
                           A   999    
043C82 DDE5                A  1000    	PUSH	IX
043C84 DD210000 00         A  1001    	LD	IX,0
043C89 DD39                A  1002    	ADD	IX,SP
043C8B C5                  A  1003    	PUSH	BC
                           A  1004    ;   34	    return ((op->indirect) && (op->imme
                           A  1005    .LINE 34
                           A  1006    
043C8C DD3106              A  1007    	LD	IY,(IX+%6)
043C8F FD7E04              A  1008    	LD	A,(IY+%4)
043C92 B7                  A  1009    	OR	A,A
043C93 28 12               A  1010    	JR	Z,L_49
043C95 DD3106              A  1011    	LD	IY,(IX+%6)
043C98 FD7E0A              A  1012    	LD	A,(IY+%A)
043C9B B7                  A  1013    	OR	A,A
043C9C 28 09               A  1014    	JR	Z,L_49
                           A  1015    ;   35	}
                           A  1016    .LINE 35
                           A  1017    
043C9E 01010000            A  1018    	LD	BC,1
043CA2 DD0FFD              A  1019    	LD	(IX+%FFFFFFFD),BC
043CA5 18 07               A  1020    	JR	L_50
043CA7                     A  1021    L_49:
043CA7 01000000            A  1022    	LD	BC,0
043CAB DD0FFD              A  1023    	LD	(IX+%FFFFFFFD),BC
043CAE                     A  1024    L_50:
043CAE DD7EFD              A  1025    	LD	A,(IX+%FFFFFFFD)
043CB1 DDF9                A  1026    	LD	SP,IX
043CB3 DDE1                A  1027    	POP	IX
043CB5 C9                  A  1028    	RET	
                           A  1029    
                           A  1030    
                           A  1031    ;**************************** _indirect_mmn_mat
                           A  1032    ;Name                         Addr/Register   S
                           A  1033    ;temp51                                IX-3    
                           A  1034    ;op                                    IX+6    
                           A  1035    
                           A  1036    
                           A  1037    ; Stack Frame Size: 12 (bytes)
                           A  1038    ;       Spill Code: 0 (instruction)
                           A  1039    
                           A  1040    
                           A  1041    .ENDFUNC "indirect_mmn_match",35,"_indirect_mmn
                           A  1042    ;   36	bool n_match(operand *op) {
043CB6                     A  1043    _n_match:
                           A  1044    .DEFINE "_n_match"
                           A  1045    
                           A  1046    .VALUE _n_match
                           A  1047    
                           A  1048    .CLASS 2
                           A  1049    
                           A  1050    .TYPE 76
                           A  1051    
                           A  1052    .ENDEF
                           A  1053    
                           A  1054    .BEGFUNC "n_match",36,"_n_match"
                           A  1055    
                           A  1056    .LINE 36
                           A  1057    
                           A  1058    .DEFINE "op"
                           A  1059    
                           A  1060    .CLASS 65
                           A  1061    
                           A  1062    .VALUE 6
                           A  1063    
                           A  1064    .TAG "NONAME3"
                           A  1065    
                           A  1066    .TYPE 40
                           A  1067    
                           A  1068    .ENDEF
                           A  1069    
043CB6 DDE5                A  1070    	PUSH	IX
043CB8 DD210000 00         A  1071    	LD	IX,0
043CBD DD39                A  1072    	ADD	IX,SP
043CBF C5                  A  1073    	PUSH	BC
                           A  1074    ;   37	    return (!(op->indirect) && (op->imm
                           A  1075    .LINE 37
                           A  1076    
043CC0 DD3106              A  1077    	LD	IY,(IX+%6)
043CC3 FD7E04              A  1078    	LD	A,(IY+%4)
043CC6 B7                  A  1079    	OR	A,A
043CC7 20 12               A  1080    	JR	NZ,L_55
043CC9 DD3106              A  1081    	LD	IY,(IX+%6)
043CCC FD7E0A              A  1082    	LD	A,(IY+%A)
043CCF B7                  A  1083    	OR	A,A
043CD0 28 09               A  1084    	JR	Z,L_55
                           A  1085    ;   38	}
                           A  1086    .LINE 38
                           A  1087    
043CD2 01010000            A  1088    	LD	BC,1
043CD6 DD0FFD              A  1089    	LD	(IX+%FFFFFFFD),BC
043CD9 18 07               A  1090    	JR	L_56
043CDB                     A  1091    L_55:
043CDB 01000000            A  1092    	LD	BC,0
043CDF DD0FFD              A  1093    	LD	(IX+%FFFFFFFD),BC
043CE2                     A  1094    L_56:
043CE2 DD7EFD              A  1095    	LD	A,(IX+%FFFFFFFD)
043CE5 DDF9                A  1096    	LD	SP,IX
043CE7 DDE1                A  1097    	POP	IX
043CE9 C9                  A  1098    	RET	
                           A  1099    
                           A  1100    
                           A  1101    ;**************************** _n_match ********
                           A  1102    ;Name                         Addr/Register   S
                           A  1103    ;temp57                                IX-3    
                           A  1104    ;op                                    IX+6    
                           A  1105    
                           A  1106    
                           A  1107    ; Stack Frame Size: 12 (bytes)
                           A  1108    ;       Spill Code: 0 (instruction)
                           A  1109    
                           A  1110    
                           A  1111    .ENDFUNC "n_match",38,"_n_match"
                           A  1112    ;   39	bool a_match(operand *op) {
043CEA                     A  1113    _a_match:
                           A  1114    .DEFINE "_a_match"
                           A  1115    
                           A  1116    .VALUE _a_match
                           A  1117    
                           A  1118    .CLASS 2
                           A  1119    
                           A  1120    .TYPE 76
                           A  1121    
                           A  1122    .ENDEF
                           A  1123    
                           A  1124    .BEGFUNC "a_match",39,"_a_match"
                           A  1125    
                           A  1126    .LINE 39
                           A  1127    
                           A  1128    .DEFINE "op"
                           A  1129    
                           A  1130    .CLASS 65
                           A  1131    
                           A  1132    .VALUE 6
                           A  1133    
                           A  1134    .TAG "NONAME3"
                           A  1135    
                           A  1136    .TYPE 40
                           A  1137    
                           A  1138    .ENDEF
                           A  1139    
043CEA DDE5                A  1140    	PUSH	IX
043CEC DD210000 00         A  1141    	LD	IX,0
043CF1 DD39                A  1142    	ADD	IX,SP
                           A  1143    ;   40	    return(op->reg == R_A);
                           A  1144    .LINE 40
                           A  1145    
043CF3 01010000            A  1146    	LD	BC,1
043CF7 DD3106              A  1147    	LD	IY,(IX+%6)
043CFA FD2700              A  1148    	LD	HL,(IY+%0)
043CFD B7                  A  1149    	OR	A,A
043CFE ED42                A  1150    	SBC	HL,BC
043D00 20 04               A  1151    	JR	NZ,L__36
043D02 3E01                A  1152    	LD	A,%1
043D04 18 01               A  1153    	JR	L__37
043D06                     A  1154    L__36:
043D06 AF                  A  1155    	XOR	A,A
043D07                     A  1156    L__37:
                           A  1157    ;   41	}
                           A  1158    .LINE 41
                           A  1159    
043D07 DDF9                A  1160    	LD	SP,IX
043D09 DDE1                A  1161    	POP	IX
043D0B C9                  A  1162    	RET	
                           A  1163    
                           A  1164    
                           A  1165    ;**************************** _a_match ********
                           A  1166    ;Name                         Addr/Register   S
                           A  1167    ;op                                    IX+6    
                           A  1168    
                           A  1169    
                           A  1170    ; Stack Frame Size: 9 (bytes)
                           A  1171    ;       Spill Code: 0 (instruction)
                           A  1172    
                           A  1173    
                           A  1174    .ENDFUNC "a_match",41,"_a_match"
                           A  1175    ;   42	bool hl_match(operand *op) {
043D0C                     A  1176    _hl_match:
                           A  1177    .DEFINE "_hl_match"
                           A  1178    
                           A  1179    .VALUE _hl_match
                           A  1180    
                           A  1181    .CLASS 2
                           A  1182    
                           A  1183    .TYPE 76
                           A  1184    
                           A  1185    .ENDEF
                           A  1186    
                           A  1187    .BEGFUNC "hl_match",42,"_hl_match"
                           A  1188    
                           A  1189    .LINE 42
                           A  1190    
                           A  1191    .DEFINE "op"
                           A  1192    
                           A  1193    .CLASS 65
                           A  1194    
                           A  1195    .VALUE 6
                           A  1196    
                           A  1197    .TAG "NONAME3"
                           A  1198    
                           A  1199    .TYPE 40
                           A  1200    
                           A  1201    .ENDEF
                           A  1202    
043D0C DDE5                A  1203    	PUSH	IX
043D0E DD210000 00         A  1204    	LD	IX,0
043D13 DD39                A  1205    	ADD	IX,SP
043D15 C5                  A  1206    	PUSH	BC
                           A  1207    ;   43	    return((op->reg == R_HL) && !(op->i
                           A  1208    .LINE 43
                           A  1209    
043D16 010A0000            A  1210    	LD	BC,10
043D1A DD3106              A  1211    	LD	IY,(IX+%6)
043D1D FD2700              A  1212    	LD	HL,(IY+%0)
043D20 B7                  A  1213    	OR	A,A
043D21 ED42                A  1214    	SBC	HL,BC
043D23 20 12               A  1215    	JR	NZ,L_62
043D25 DD3106              A  1216    	LD	IY,(IX+%6)
043D28 FD7E04              A  1217    	LD	A,(IY+%4)
043D2B B7                  A  1218    	OR	A,A
043D2C 20 09               A  1219    	JR	NZ,L_62
                           A  1220    ;   44	}
                           A  1221    .LINE 44
                           A  1222    
043D2E 01010000            A  1223    	LD	BC,1
043D32 DD0FFD              A  1224    	LD	(IX+%FFFFFFFD),BC
043D35 18 07               A  1225    	JR	L_63
043D37                     A  1226    L_62:
043D37 01000000            A  1227    	LD	BC,0
043D3B DD0FFD              A  1228    	LD	(IX+%FFFFFFFD),BC
043D3E                     A  1229    L_63:
043D3E DD7EFD              A  1230    	LD	A,(IX+%FFFFFFFD)
043D41 DDF9                A  1231    	LD	SP,IX
043D43 DDE1                A  1232    	POP	IX
043D45 C9                  A  1233    	RET	
                           A  1234    
                           A  1235    
                           A  1236    ;**************************** _hl_match *******
                           A  1237    ;Name                         Addr/Register   S
                           A  1238    ;temp64                                IX-3    
                           A  1239    ;op                                    IX+6    
                           A  1240    
                           A  1241    
                           A  1242    ; Stack Frame Size: 12 (bytes)
                           A  1243    ;       Spill Code: 0 (instruction)
                           A  1244    
                           A  1245    
                           A  1246    .ENDFUNC "hl_match",44,"_hl_match"
                           A  1247    ;   45	bool indirect_hl_match(operand *op) {
043D46                     A  1248    _indirect_hl_match:
                           A  1249    .DEFINE "_indirect_hl_match"
                           A  1250    
                           A  1251    .VALUE _indirect_hl_match
                           A  1252    
                           A  1253    .CLASS 2
                           A  1254    
                           A  1255    .TYPE 76
                           A  1256    
                           A  1257    .ENDEF
                           A  1258    
                           A  1259    .BEGFUNC "indirect_hl_match",45,"_indirect_hl_m
                           A  1260    
                           A  1261    .LINE 45
                           A  1262    
                           A  1263    .DEFINE "op"
                           A  1264    
                           A  1265    .CLASS 65
                           A  1266    
                           A  1267    .VALUE 6
                           A  1268    
                           A  1269    .TAG "NONAME3"
                           A  1270    
                           A  1271    .TYPE 40
                           A  1272    
                           A  1273    .ENDEF
                           A  1274    
043D46 DDE5                A  1275    	PUSH	IX
043D48 DD210000 00         A  1276    	LD	IX,0
043D4D DD39                A  1277    	ADD	IX,SP
043D4F C5                  A  1278    	PUSH	BC
                           A  1279    ;   46	    return((op->reg == R_HL) && (op->in
                           A  1280    .LINE 46
                           A  1281    
043D50 010A0000            A  1282    	LD	BC,10
043D54 DD3106              A  1283    	LD	IY,(IX+%6)
043D57 FD2700              A  1284    	LD	HL,(IY+%0)
043D5A B7                  A  1285    	OR	A,A
043D5B ED42                A  1286    	SBC	HL,BC
043D5D 20 12               A  1287    	JR	NZ,L_68
043D5F DD3106              A  1288    	LD	IY,(IX+%6)
043D62 FD7E04              A  1289    	LD	A,(IY+%4)
043D65 B7                  A  1290    	OR	A,A
043D66 28 09               A  1291    	JR	Z,L_68
                           A  1292    ;   47	}
                           A  1293    .LINE 47
                           A  1294    
043D68 01010000            A  1295    	LD	BC,1
043D6C DD0FFD              A  1296    	LD	(IX+%FFFFFFFD),BC
043D6F 18 07               A  1297    	JR	L_69
043D71                     A  1298    L_68:
043D71 01000000            A  1299    	LD	BC,0
043D75 DD0FFD              A  1300    	LD	(IX+%FFFFFFFD),BC
043D78                     A  1301    L_69:
043D78 DD7EFD              A  1302    	LD	A,(IX+%FFFFFFFD)
043D7B DDF9                A  1303    	LD	SP,IX
043D7D DDE1                A  1304    	POP	IX
043D7F C9                  A  1305    	RET	
                           A  1306    
                           A  1307    
                           A  1308    ;**************************** _indirect_hl_matc
                           A  1309    ;Name                         Addr/Register   S
                           A  1310    ;temp70                                IX-3    
                           A  1311    ;op                                    IX+6    
                           A  1312    
                           A  1313    
                           A  1314    ; Stack Frame Size: 12 (bytes)
                           A  1315    ;       Spill Code: 0 (instruction)
                           A  1316    
                           A  1317    
                           A  1318    .ENDFUNC "indirect_hl_match",47,"_indirect_hl_m
                           A  1319    ;   48	bool rr_match(operand *op) {
043D80                     A  1320    _rr_match:
                           A  1321    .DEFINE "_rr_match"
                           A  1322    
                           A  1323    .VALUE _rr_match
                           A  1324    
                           A  1325    .CLASS 2
                           A  1326    
                           A  1327    .TYPE 76
                           A  1328    
                           A  1329    .ENDEF
                           A  1330    
                           A  1331    .BEGFUNC "rr_match",48,"_rr_match"
                           A  1332    
                           A  1333    .LINE 48
                           A  1334    
                           A  1335    .DEFINE "op"
                           A  1336    
                           A  1337    .CLASS 65
                           A  1338    
                           A  1339    .VALUE 6
                           A  1340    
                           A  1341    .TAG "NONAME3"
                           A  1342    
                           A  1343    .TYPE 40
                           A  1344    
                           A  1345    .ENDEF
                           A  1346    
043D80 DDE5                A  1347    	PUSH	IX
043D82 DD210000 00         A  1348    	LD	IX,0
043D87 DD39                A  1349    	ADD	IX,SP
043D89 C5                  A  1350    	PUSH	BC
043D8A C5                  A  1351    	PUSH	BC
                           A  1352    ;   49	    return((op->reg >= R_BC) && (op->re
                           A  1353    .LINE 49
                           A  1354    
043D8B DD3106              A  1355    	LD	IY,(IX+%6)
043D8E FD0700              A  1356    	LD	BC,(IY+%0)
043D91 DD0FFD              A  1357    	LD	(IX+%FFFFFFFD),BC
043D94 01080000            A  1358    	LD	BC,8
043D98 DD27FD              A  1359    	LD	HL,(IX+%FFFFFFFD)
043D9B B7                  A  1360    	OR	A,A
043D9C ED42                A  1361    	SBC	HL,BC
043D9E FA C6 3D 04         A  1362    	JP	M,L_75
043DA2 DD07FD              A  1363    	LD	BC,(IX+%FFFFFFFD)
043DA5 210A0000            A  1364    	LD	HL,10
043DA9 B7                  A  1365    	OR	A,A
043DAA ED42                A  1366    	SBC	HL,BC
043DAC CD 1D 64 04         A  1367    	CALL	__setflag
043DB0 FA C6 3D 04         A  1368    	JP	M,L_75
043DB4 DD3106              A  1369    	LD	IY,(IX+%6)
043DB7 FD7E04              A  1370    	LD	A,(IY+%4)
043DBA B7                  A  1371    	OR	A,A
043DBB 20 09               A  1372    	JR	NZ,L_75
                           A  1373    ;   50	}
                           A  1374    .LINE 50
                           A  1375    
043DBD 01010000            A  1376    	LD	BC,1
043DC1 DD0FFA              A  1377    	LD	(IX+%FFFFFFFA),BC
043DC4 18 07               A  1378    	JR	L_76
043DC6                     A  1379    L_75:
043DC6 01000000            A  1380    	LD	BC,0
043DCA DD0FFA              A  1381    	LD	(IX+%FFFFFFFA),BC
043DCD                     A  1382    L_76:
043DCD DD7EFA              A  1383    	LD	A,(IX+%FFFFFFFA)
043DD0 DDF9                A  1384    	LD	SP,IX
043DD2 DDE1                A  1385    	POP	IX
043DD4 C9                  A  1386    	RET	
                           A  1387    
                           A  1388    
                           A  1389    ;**************************** _rr_match *******
                           A  1390    ;Name                         Addr/Register   S
                           A  1391    ;temp77                                IX-6    
                           A  1392    ;G_4                                   IX-3    
                           A  1393    ;op                                    IX+6    
                           A  1394    
                           A  1395    
                           A  1396    ; Stack Frame Size: 15 (bytes)
                           A  1397    ;       Spill Code: 0 (instruction)
                           A  1398    
                           A  1399    
                           A  1400    .ENDFUNC "rr_match",50,"_rr_match"
                           A  1401    ;   51	bool indirect_rr_match(operand *op) {
043DD5                     A  1402    _indirect_rr_match:
                           A  1403    .DEFINE "_indirect_rr_match"
                           A  1404    
                           A  1405    .VALUE _indirect_rr_match
                           A  1406    
                           A  1407    .CLASS 2
                           A  1408    
                           A  1409    .TYPE 76
                           A  1410    
                           A  1411    .ENDEF
                           A  1412    
                           A  1413    .BEGFUNC "indirect_rr_match",51,"_indirect_rr_m
                           A  1414    
                           A  1415    .LINE 51
                           A  1416    
                           A  1417    .DEFINE "op"
                           A  1418    
                           A  1419    .CLASS 65
                           A  1420    
                           A  1421    .VALUE 6
                           A  1422    
                           A  1423    .TAG "NONAME3"
                           A  1424    
                           A  1425    .TYPE 40
                           A  1426    
                           A  1427    .ENDEF
                           A  1428    
043DD5 DDE5                A  1429    	PUSH	IX
043DD7 DD210000 00         A  1430    	LD	IX,0
043DDC DD39                A  1431    	ADD	IX,SP
043DDE C5                  A  1432    	PUSH	BC
043DDF C5                  A  1433    	PUSH	BC
                           A  1434    ;   52	    return((op->reg >= R_BC) && (op->re
                           A  1435    .LINE 52
                           A  1436    
043DE0 DD3106              A  1437    	LD	IY,(IX+%6)
043DE3 FD0700              A  1438    	LD	BC,(IY+%0)
043DE6 DD0FFD              A  1439    	LD	(IX+%FFFFFFFD),BC
043DE9 01080000            A  1440    	LD	BC,8
043DED DD27FD              A  1441    	LD	HL,(IX+%FFFFFFFD)
043DF0 B7                  A  1442    	OR	A,A
043DF1 ED42                A  1443    	SBC	HL,BC
043DF3 FA 1B 3E 04         A  1444    	JP	M,L_82
043DF7 DD07FD              A  1445    	LD	BC,(IX+%FFFFFFFD)
043DFA 210A0000            A  1446    	LD	HL,10
043DFE B7                  A  1447    	OR	A,A
043DFF ED42                A  1448    	SBC	HL,BC
043E01 CD 1D 64 04         A  1449    	CALL	__setflag
043E05 FA 1B 3E 04         A  1450    	JP	M,L_82
043E09 DD3106              A  1451    	LD	IY,(IX+%6)
043E0C FD7E04              A  1452    	LD	A,(IY+%4)
043E0F B7                  A  1453    	OR	A,A
043E10 28 09               A  1454    	JR	Z,L_82
                           A  1455    ;   53	}
                           A  1456    .LINE 53
                           A  1457    
043E12 01010000            A  1458    	LD	BC,1
043E16 DD0FFA              A  1459    	LD	(IX+%FFFFFFFA),BC
043E19 18 07               A  1460    	JR	L_83
043E1B                     A  1461    L_82:
043E1B 01000000            A  1462    	LD	BC,0
043E1F DD0FFA              A  1463    	LD	(IX+%FFFFFFFA),BC
043E22                     A  1464    L_83:
043E22 DD7EFA              A  1465    	LD	A,(IX+%FFFFFFFA)
043E25 DDF9                A  1466    	LD	SP,IX
043E27 DDE1                A  1467    	POP	IX
043E29 C9                  A  1468    	RET	
                           A  1469    
                           A  1470    
                           A  1471    ;**************************** _indirect_rr_matc
                           A  1472    ;Name                         Addr/Register   S
                           A  1473    ;temp84                                IX-6    
                           A  1474    ;G_5                                   IX-3    
                           A  1475    ;op                                    IX+6    
                           A  1476    
                           A  1477    
                           A  1478    ; Stack Frame Size: 15 (bytes)
                           A  1479    ;       Spill Code: 0 (instruction)
                           A  1480    
                           A  1481    
                           A  1482    .ENDFUNC "indirect_rr_match",53,"_indirect_rr_m
                           A  1483    ;   54	bool rxy_match(operand *op) {
043E2A                     A  1484    _rxy_match:
                           A  1485    .DEFINE "_rxy_match"
                           A  1486    
                           A  1487    .VALUE _rxy_match
                           A  1488    
                           A  1489    .CLASS 2
                           A  1490    
                           A  1491    .TYPE 76
                           A  1492    
                           A  1493    .ENDEF
                           A  1494    
                           A  1495    .BEGFUNC "rxy_match",54,"_rxy_match"
                           A  1496    
                           A  1497    .LINE 54
                           A  1498    
                           A  1499    .DEFINE "op"
                           A  1500    
                           A  1501    .CLASS 65
                           A  1502    
                           A  1503    .VALUE 6
                           A  1504    
                           A  1505    .TAG "NONAME3"
                           A  1506    
                           A  1507    .TYPE 40
                           A  1508    
                           A  1509    .ENDEF
                           A  1510    
043E2A DDE5                A  1511    	PUSH	IX
043E2C DD210000 00         A  1512    	LD	IX,0
043E31 DD39                A  1513    	ADD	IX,SP
043E33 C5                  A  1514    	PUSH	BC
043E34 C5                  A  1515    	PUSH	BC
                           A  1516    ;   55	    return(!(op->indirect) && ((op->reg
                           A  1517    .LINE 55
                           A  1518    
043E35 DD3106              A  1519    	LD	IY,(IX+%6)
043E38 FD7E04              A  1520    	LD	A,(IY+%4)
043E3B B7                  A  1521    	OR	A,A
043E3C 20 42               A  1522    	JR	NZ,L_91
043E3E DD3106              A  1523    	LD	IY,(IX+%6)
043E41 FD0700              A  1524    	LD	BC,(IY+%0)
043E44 DD0FFD              A  1525    	LD	(IX+%FFFFFFFD),BC
043E47 01080000            A  1526    	LD	BC,8
043E4B DD27FD              A  1527    	LD	HL,(IX+%FFFFFFFD)
043E4E B7                  A  1528    	OR	A,A
043E4F ED42                A  1529    	SBC	HL,BC
043E51 28 24               A  1530    	JR	Z,L_90
043E53 01090000            A  1531    	LD	BC,9
043E57 DD27FD              A  1532    	LD	HL,(IX+%FFFFFFFD)
043E5A B7                  A  1533    	OR	A,A
043E5B ED42                A  1534    	SBC	HL,BC
043E5D 28 18               A  1535    	JR	Z,L_90
043E5F 010D0000            A  1536    	LD	BC,13
043E63 DD27FD              A  1537    	LD	HL,(IX+%FFFFFFFD)
043E66 B7                  A  1538    	OR	A,A
043E67 ED42                A  1539    	SBC	HL,BC
043E69 28 0C               A  1540    	JR	Z,L_90
043E6B 010E0000            A  1541    	LD	BC,14
043E6F DD27FD              A  1542    	LD	HL,(IX+%FFFFFFFD)
043E72 B7                  A  1543    	OR	A,A
043E73 ED42                A  1544    	SBC	HL,BC
043E75 20 09               A  1545    	JR	NZ,L_91
043E77                     A  1546    L_90:
                           A  1547    ;   56	}
                           A  1548    .LINE 56
                           A  1549    
043E77 01010000            A  1550    	LD	BC,1
043E7B DD0FFA              A  1551    	LD	(IX+%FFFFFFFA),BC
043E7E 18 07               A  1552    	JR	L_92
043E80                     A  1553    L_91:
043E80 01000000            A  1554    	LD	BC,0
043E84 DD0FFA              A  1555    	LD	(IX+%FFFFFFFA),BC
043E87                     A  1556    L_92:
043E87 DD7EFA              A  1557    	LD	A,(IX+%FFFFFFFA)
043E8A DDF9                A  1558    	LD	SP,IX
043E8C DDE1                A  1559    	POP	IX
043E8E C9                  A  1560    	RET	
                           A  1561    
                           A  1562    
                           A  1563    ;**************************** _rxy_match ******
                           A  1564    ;Name                         Addr/Register   S
                           A  1565    ;temp93                                IX-6    
                           A  1566    ;G_6                                   IX-3    
                           A  1567    ;op                                    IX+6    
                           A  1568    
                           A  1569    
                           A  1570    ; Stack Frame Size: 15 (bytes)
                           A  1571    ;       Spill Code: 0 (instruction)
                           A  1572    
                           A  1573    
                           A  1574    .ENDFUNC "rxy_match",56,"_rxy_match"
                           A  1575    ;   57	bool sp_match(operand *op) {
043E8F                     A  1576    _sp_match:
                           A  1577    .DEFINE "_sp_match"
                           A  1578    
                           A  1579    .VALUE _sp_match
                           A  1580    
                           A  1581    .CLASS 2
                           A  1582    
                           A  1583    .TYPE 76
                           A  1584    
                           A  1585    .ENDEF
                           A  1586    
                           A  1587    .BEGFUNC "sp_match",57,"_sp_match"
                           A  1588    
                           A  1589    .LINE 57
                           A  1590    
                           A  1591    .DEFINE "op"
                           A  1592    
                           A  1593    .CLASS 65
                           A  1594    
                           A  1595    .VALUE 6
                           A  1596    
                           A  1597    .TAG "NONAME3"
                           A  1598    
                           A  1599    .TYPE 40
                           A  1600    
                           A  1601    .ENDEF
                           A  1602    
043E8F DDE5                A  1603    	PUSH	IX
043E91 DD210000 00         A  1604    	LD	IX,0
043E96 DD39                A  1605    	ADD	IX,SP
043E98 C5                  A  1606    	PUSH	BC
                           A  1607    ;   58	    return(!(op->indirect) && (op->reg 
                           A  1608    .LINE 58
                           A  1609    
043E99 DD3106              A  1610    	LD	IY,(IX+%6)
043E9C FD7E04              A  1611    	LD	A,(IY+%4)
043E9F B7                  A  1612    	OR	A,A
043EA0 20 18               A  1613    	JR	NZ,L_97
043EA2 010B0000            A  1614    	LD	BC,11
043EA6 DD3106              A  1615    	LD	IY,(IX+%6)
043EA9 FD2700              A  1616    	LD	HL,(IY+%0)
043EAC B7                  A  1617    	OR	A,A
043EAD ED42                A  1618    	SBC	HL,BC
043EAF 20 09               A  1619    	JR	NZ,L_97
                           A  1620    ;   59	}
                           A  1621    .LINE 59
                           A  1622    
043EB1 01010000            A  1623    	LD	BC,1
043EB5 DD0FFD              A  1624    	LD	(IX+%FFFFFFFD),BC
043EB8 18 07               A  1625    	JR	L_98
043EBA                     A  1626    L_97:
043EBA 01000000            A  1627    	LD	BC,0
043EBE DD0FFD              A  1628    	LD	(IX+%FFFFFFFD),BC
043EC1                     A  1629    L_98:
043EC1 DD7EFD              A  1630    	LD	A,(IX+%FFFFFFFD)
043EC4 DDF9                A  1631    	LD	SP,IX
043EC6 DDE1                A  1632    	POP	IX
043EC8 C9                  A  1633    	RET	
                           A  1634    
                           A  1635    
                           A  1636    ;**************************** _sp_match *******
                           A  1637    ;Name                         Addr/Register   S
                           A  1638    ;temp99                                IX-3    
                           A  1639    ;op                                    IX+6    
                           A  1640    
                           A  1641    
                           A  1642    ; Stack Frame Size: 12 (bytes)
                           A  1643    ;       Spill Code: 0 (instruction)
                           A  1644    
                           A  1645    
                           A  1646    .ENDFUNC "sp_match",59,"_sp_match"
                           A  1647    ;   60	bool indirect_sp_match(operand *op) {
043EC9                     A  1648    _indirect_sp_match:
                           A  1649    .DEFINE "_indirect_sp_match"
                           A  1650    
                           A  1651    .VALUE _indirect_sp_match
                           A  1652    
                           A  1653    .CLASS 2
                           A  1654    
                           A  1655    .TYPE 76
                           A  1656    
                           A  1657    .ENDEF
                           A  1658    
                           A  1659    .BEGFUNC "indirect_sp_match",60,"_indirect_sp_m
                           A  1660    
                           A  1661    .LINE 60
                           A  1662    
                           A  1663    .DEFINE "op"
                           A  1664    
                           A  1665    .CLASS 65
                           A  1666    
                           A  1667    .VALUE 6
                           A  1668    
                           A  1669    .TAG "NONAME3"
                           A  1670    
                           A  1671    .TYPE 40
                           A  1672    
                           A  1673    .ENDEF
                           A  1674    
043EC9 DDE5                A  1675    	PUSH	IX
043ECB DD210000 00         A  1676    	LD	IX,0
043ED0 DD39                A  1677    	ADD	IX,SP
043ED2 C5                  A  1678    	PUSH	BC
                           A  1679    ;   61	    return((op->indirect) && (op->reg =
                           A  1680    .LINE 61
                           A  1681    
043ED3 DD3106              A  1682    	LD	IY,(IX+%6)
043ED6 FD7E04              A  1683    	LD	A,(IY+%4)
043ED9 B7                  A  1684    	OR	A,A
043EDA 28 18               A  1685    	JR	Z,L_103
043EDC 010B0000            A  1686    	LD	BC,11
043EE0 DD3106              A  1687    	LD	IY,(IX+%6)
043EE3 FD2700              A  1688    	LD	HL,(IY+%0)
043EE6 B7                  A  1689    	OR	A,A
043EE7 ED42                A  1690    	SBC	HL,BC
043EE9 20 09               A  1691    	JR	NZ,L_103
                           A  1692    ;   62	}
                           A  1693    .LINE 62
                           A  1694    
043EEB 01010000            A  1695    	LD	BC,1
043EEF DD0FFD              A  1696    	LD	(IX+%FFFFFFFD),BC
043EF2 18 07               A  1697    	JR	L_104
043EF4                     A  1698    L_103:
043EF4 01000000            A  1699    	LD	BC,0
043EF8 DD0FFD              A  1700    	LD	(IX+%FFFFFFFD),BC
043EFB                     A  1701    L_104:
043EFB DD7EFD              A  1702    	LD	A,(IX+%FFFFFFFD)
043EFE DDF9                A  1703    	LD	SP,IX
043F00 DDE1                A  1704    	POP	IX
043F02 C9                  A  1705    	RET	
                           A  1706    
                           A  1707    
                           A  1708    ;**************************** _indirect_sp_matc
                           A  1709    ;Name                         Addr/Register   S
                           A  1710    ;temp105                               IX-3    
                           A  1711    ;op                                    IX+6    
                           A  1712    
                           A  1713    
                           A  1714    ; Stack Frame Size: 12 (bytes)
                           A  1715    ;       Spill Code: 0 (instruction)
                           A  1716    
                           A  1717    
                           A  1718    .ENDFUNC "indirect_sp_match",62,"_indirect_sp_m
                           A  1719    ;   63	bool r_match(operand *op) {
043F03                     A  1720    _r_match:
                           A  1721    .DEFINE "_r_match"
                           A  1722    
                           A  1723    .VALUE _r_match
                           A  1724    
                           A  1725    .CLASS 2
                           A  1726    
                           A  1727    .TYPE 76
                           A  1728    
                           A  1729    .ENDEF
                           A  1730    
                           A  1731    .BEGFUNC "r_match",63,"_r_match"
                           A  1732    
                           A  1733    .LINE 63
                           A  1734    
                           A  1735    .DEFINE "op"
                           A  1736    
                           A  1737    .CLASS 65
                           A  1738    
                           A  1739    .VALUE 6
                           A  1740    
                           A  1741    .TAG "NONAME3"
                           A  1742    
                           A  1743    .TYPE 40
                           A  1744    
                           A  1745    .ENDEF
                           A  1746    
043F03 DDE5                A  1747    	PUSH	IX
043F05 DD210000 00         A  1748    	LD	IX,0
043F0A DD39                A  1749    	ADD	IX,SP
043F0C C5                  A  1750    	PUSH	BC
043F0D C5                  A  1751    	PUSH	BC
                           A  1752    ;   64	    return((op->reg >= R_A) && (op->reg
                           A  1753    .LINE 64
                           A  1754    
043F0E DD3106              A  1755    	LD	IY,(IX+%6)
043F11 FD0700              A  1756    	LD	BC,(IY+%0)
043F14 DD0FFD              A  1757    	LD	(IX+%FFFFFFFD),BC
043F17 01010000            A  1758    	LD	BC,1
043F1B DD27FD              A  1759    	LD	HL,(IX+%FFFFFFFD)
043F1E B7                  A  1760    	OR	A,A
043F1F ED42                A  1761    	SBC	HL,BC
043F21 FA 40 3F 04         A  1762    	JP	M,L_109
043F25 DD07FD              A  1763    	LD	BC,(IX+%FFFFFFFD)
043F28 21070000            A  1764    	LD	HL,7
043F2C B7                  A  1765    	OR	A,A
043F2D ED42                A  1766    	SBC	HL,BC
043F2F CD 1D 64 04         A  1767    	CALL	__setflag
043F33 FA 40 3F 04         A  1768    	JP	M,L_109
                           A  1769    ;   65	}
                           A  1770    .LINE 65
                           A  1771    
043F37 01010000            A  1772    	LD	BC,1
043F3B DD0FFA              A  1773    	LD	(IX+%FFFFFFFA),BC
043F3E 18 07               A  1774    	JR	L_110
043F40                     A  1775    L_109:
043F40 01000000            A  1776    	LD	BC,0
043F44 DD0FFA              A  1777    	LD	(IX+%FFFFFFFA),BC
043F47                     A  1778    L_110:
043F47 DD7EFA              A  1779    	LD	A,(IX+%FFFFFFFA)
043F4A DDF9                A  1780    	LD	SP,IX
043F4C DDE1                A  1781    	POP	IX
043F4E C9                  A  1782    	RET	
                           A  1783    
                           A  1784    
                           A  1785    ;**************************** _r_match ********
                           A  1786    ;Name                         Addr/Register   S
                           A  1787    ;temp111                               IX-6    
                           A  1788    ;G_9                                   IX-3    
                           A  1789    ;op                                    IX+6    
                           A  1790    
                           A  1791    
                           A  1792    ; Stack Frame Size: 15 (bytes)
                           A  1793    ;       Spill Code: 0 (instruction)
                           A  1794    
                           A  1795    
                           A  1796    .ENDFUNC "r_match",65,"_r_match"
                           A  1797    ;   66	bool reg_r_match(operand *op) {
043F4F                     A  1798    _reg_r_match:
                           A  1799    .DEFINE "_reg_r_match"
                           A  1800    
                           A  1801    .VALUE _reg_r_match
                           A  1802    
                           A  1803    .CLASS 2
                           A  1804    
                           A  1805    .TYPE 76
                           A  1806    
                           A  1807    .ENDEF
                           A  1808    
                           A  1809    .BEGFUNC "reg_r_match",66,"_reg_r_match"
                           A  1810    
                           A  1811    .LINE 66
                           A  1812    
                           A  1813    .DEFINE "op"
                           A  1814    
                           A  1815    .CLASS 65
                           A  1816    
                           A  1817    .VALUE 6
                           A  1818    
                           A  1819    .TAG "NONAME3"
                           A  1820    
                           A  1821    .TYPE 40
                           A  1822    
                           A  1823    .ENDEF
                           A  1824    
043F4F DDE5                A  1825    	PUSH	IX
043F51 DD210000 00         A  1826    	LD	IX,0
043F56 DD39                A  1827    	ADD	IX,SP
                           A  1828    ;   67	    return(op->reg == R_R);
                           A  1829    .LINE 67
                           A  1830    
043F58 01130000            A  1831    	LD	BC,19
043F5C DD3106              A  1832    	LD	IY,(IX+%6)
043F5F FD2700              A  1833    	LD	HL,(IY+%0)
043F62 B7                  A  1834    	OR	A,A
043F63 ED42                A  1835    	SBC	HL,BC
043F65 20 04               A  1836    	JR	NZ,L__69
043F67 3E01                A  1837    	LD	A,%1
043F69 18 01               A  1838    	JR	L__70
043F6B                     A  1839    L__69:
043F6B AF                  A  1840    	XOR	A,A
043F6C                     A  1841    L__70:
                           A  1842    ;   68	}
                           A  1843    .LINE 68
                           A  1844    
043F6C DDF9                A  1845    	LD	SP,IX
043F6E DDE1                A  1846    	POP	IX
043F70 C9                  A  1847    	RET	
                           A  1848    
                           A  1849    
                           A  1850    ;**************************** _reg_r_match ****
                           A  1851    ;Name                         Addr/Register   S
                           A  1852    ;op                                    IX+6    
                           A  1853    
                           A  1854    
                           A  1855    ; Stack Frame Size: 9 (bytes)
                           A  1856    ;       Spill Code: 0 (instruction)
                           A  1857    
                           A  1858    
                           A  1859    .ENDFUNC "reg_r_match",68,"_reg_r_match"
                           A  1860    ;   69	bool mb_match(operand *op) {
043F71                     A  1861    _mb_match:
                           A  1862    .DEFINE "_mb_match"
                           A  1863    
                           A  1864    .VALUE _mb_match
                           A  1865    
                           A  1866    .CLASS 2
                           A  1867    
                           A  1868    .TYPE 76
                           A  1869    
                           A  1870    .ENDEF
                           A  1871    
                           A  1872    .BEGFUNC "mb_match",69,"_mb_match"
                           A  1873    
                           A  1874    .LINE 69
                           A  1875    
                           A  1876    .DEFINE "op"
                           A  1877    
                           A  1878    .CLASS 65
                           A  1879    
                           A  1880    .VALUE 6
                           A  1881    
                           A  1882    .TAG "NONAME3"
                           A  1883    
                           A  1884    .TYPE 40
                           A  1885    
                           A  1886    .ENDEF
                           A  1887    
043F71 DDE5                A  1888    	PUSH	IX
043F73 DD210000 00         A  1889    	LD	IX,0
043F78 DD39                A  1890    	ADD	IX,SP
                           A  1891    ;   70	    return(op->reg == R_MB);
                           A  1892    .LINE 70
                           A  1893    
043F7A 01140000            A  1894    	LD	BC,20
043F7E DD3106              A  1895    	LD	IY,(IX+%6)
043F81 FD2700              A  1896    	LD	HL,(IY+%0)
043F84 B7                  A  1897    	OR	A,A
043F85 ED42                A  1898    	SBC	HL,BC
043F87 20 04               A  1899    	JR	NZ,L__73
043F89 3E01                A  1900    	LD	A,%1
043F8B 18 01               A  1901    	JR	L__74
043F8D                     A  1902    L__73:
043F8D AF                  A  1903    	XOR	A,A
043F8E                     A  1904    L__74:
                           A  1905    ;   71	}
                           A  1906    .LINE 71
                           A  1907    
043F8E DDF9                A  1908    	LD	SP,IX
043F90 DDE1                A  1909    	POP	IX
043F92 C9                  A  1910    	RET	
                           A  1911    
                           A  1912    
                           A  1913    ;**************************** _mb_match *******
                           A  1914    ;Name                         Addr/Register   S
                           A  1915    ;op                                    IX+6    
                           A  1916    
                           A  1917    
                           A  1918    ; Stack Frame Size: 9 (bytes)
                           A  1919    ;       Spill Code: 0 (instruction)
                           A  1920    
                           A  1921    
                           A  1922    .ENDFUNC "mb_match",71,"_mb_match"
                           A  1923    ;   72	bool i_match(operand *op) {
043F93                     A  1924    _i_match:
                           A  1925    .DEFINE "_i_match"
                           A  1926    
                           A  1927    .VALUE _i_match
                           A  1928    
                           A  1929    .CLASS 2
                           A  1930    
                           A  1931    .TYPE 76
                           A  1932    
                           A  1933    .ENDEF
                           A  1934    
                           A  1935    .BEGFUNC "i_match",72,"_i_match"
                           A  1936    
                           A  1937    .LINE 72
                           A  1938    
                           A  1939    .DEFINE "op"
                           A  1940    
                           A  1941    .CLASS 65
                           A  1942    
                           A  1943    .VALUE 6
                           A  1944    
                           A  1945    .TAG "NONAME3"
                           A  1946    
                           A  1947    .TYPE 40
                           A  1948    
                           A  1949    .ENDEF
                           A  1950    
043F93 DDE5                A  1951    	PUSH	IX
043F95 DD210000 00         A  1952    	LD	IX,0
043F9A DD39                A  1953    	ADD	IX,SP
                           A  1954    ;   73	    return(op->reg == R_I);
                           A  1955    .LINE 73
                           A  1956    
043F9C 01150000            A  1957    	LD	BC,21
043FA0 DD3106              A  1958    	LD	IY,(IX+%6)
043FA3 FD2700              A  1959    	LD	HL,(IY+%0)
043FA6 B7                  A  1960    	OR	A,A
043FA7 ED42                A  1961    	SBC	HL,BC
043FA9 20 04               A  1962    	JR	NZ,L__77
043FAB 3E01                A  1963    	LD	A,%1
043FAD 18 01               A  1964    	JR	L__78
043FAF                     A  1965    L__77:
043FAF AF                  A  1966    	XOR	A,A
043FB0                     A  1967    L__78:
                           A  1968    ;   74	}
                           A  1969    .LINE 74
                           A  1970    
043FB0 DDF9                A  1971    	LD	SP,IX
043FB2 DDE1                A  1972    	POP	IX
043FB4 C9                  A  1973    	RET	
                           A  1974    
                           A  1975    
                           A  1976    ;**************************** _i_match ********
                           A  1977    ;Name                         Addr/Register   S
                           A  1978    ;op                                    IX+6    
                           A  1979    
                           A  1980    
                           A  1981    ; Stack Frame Size: 9 (bytes)
                           A  1982    ;       Spill Code: 0 (instruction)
                           A  1983    
                           A  1984    
                           A  1985    .ENDFUNC "i_match",74,"_i_match"
                           A  1986    ;   75	bool b_match(operand *op) {
043FB5                     A  1987    _b_match:
                           A  1988    .DEFINE "_b_match"
                           A  1989    
                           A  1990    .VALUE _b_match
                           A  1991    
                           A  1992    .CLASS 2
                           A  1993    
                           A  1994    .TYPE 76
                           A  1995    
                           A  1996    .ENDEF
                           A  1997    
                           A  1998    .BEGFUNC "b_match",75,"_b_match"
                           A  1999    
                           A  2000    .LINE 75
                           A  2001    
                           A  2002    .DEFINE "op"
                           A  2003    
                           A  2004    .CLASS 65
                           A  2005    
                           A  2006    .VALUE 6
                           A  2007    
                           A  2008    .TAG "NONAME3"
                           A  2009    
                           A  2010    .TYPE 40
                           A  2011    
                           A  2012    .ENDEF
                           A  2013    
043FB5 DDE5                A  2014    	PUSH	IX
043FB7 DD210000 00         A  2015    	LD	IX,0
043FBC DD39                A  2016    	ADD	IX,SP
043FBE C5                  A  2017    	PUSH	BC
                           A  2018    ;   76	    return (!(op->indirect) && (op->imm
                           A  2019    .LINE 76
                           A  2020    
043FBF DD3106              A  2021    	LD	IY,(IX+%6)
043FC2 FD7E04              A  2022    	LD	A,(IY+%4)
043FC5 B7                  A  2023    	OR	A,A
043FC6 20 12               A  2024    	JR	NZ,L_118
043FC8 DD3106              A  2025    	LD	IY,(IX+%6)
043FCB FD7E0A              A  2026    	LD	A,(IY+%A)
043FCE B7                  A  2027    	OR	A,A
043FCF 28 09               A  2028    	JR	Z,L_118
                           A  2029    ;   77	}
                           A  2030    .LINE 77
                           A  2031    
043FD1 01010000            A  2032    	LD	BC,1
043FD5 DD0FFD              A  2033    	LD	(IX+%FFFFFFFD),BC
043FD8 18 07               A  2034    	JR	L_119
043FDA                     A  2035    L_118:
043FDA 01000000            A  2036    	LD	BC,0
043FDE DD0FFD              A  2037    	LD	(IX+%FFFFFFFD),BC
043FE1                     A  2038    L_119:
043FE1 DD7EFD              A  2039    	LD	A,(IX+%FFFFFFFD)
043FE4 DDF9                A  2040    	LD	SP,IX
043FE6 DDE1                A  2041    	POP	IX
043FE8 C9                  A  2042    	RET	
                           A  2043    
                           A  2044    
                           A  2045    ;**************************** _b_match ********
                           A  2046    ;Name                         Addr/Register   S
                           A  2047    ;temp120                               IX-3    
                           A  2048    ;op                                    IX+6    
                           A  2049    
                           A  2050    
                           A  2051    ; Stack Frame Size: 12 (bytes)
                           A  2052    ;       Spill Code: 0 (instruction)
                           A  2053    
                           A  2054    
                           A  2055    .ENDFUNC "b_match",77,"_b_match"
                           A  2056    ;   78	bool af_match(operand *op) {
043FE9                     A  2057    _af_match:
                           A  2058    .DEFINE "_af_match"
                           A  2059    
                           A  2060    .VALUE _af_match
                           A  2061    
                           A  2062    .CLASS 2
                           A  2063    
                           A  2064    .TYPE 76
                           A  2065    
                           A  2066    .ENDEF
                           A  2067    
                           A  2068    .BEGFUNC "af_match",78,"_af_match"
                           A  2069    
                           A  2070    .LINE 78
                           A  2071    
                           A  2072    .DEFINE "op"
                           A  2073    
                           A  2074    .CLASS 65
                           A  2075    
                           A  2076    .VALUE 6
                           A  2077    
                           A  2078    .TAG "NONAME3"
                           A  2079    
                           A  2080    .TYPE 40
                           A  2081    
                           A  2082    .ENDEF
                           A  2083    
043FE9 DDE5                A  2084    	PUSH	IX
043FEB DD210000 00         A  2085    	LD	IX,0
043FF0 DD39                A  2086    	ADD	IX,SP
                           A  2087    ;   79	    return(op->reg == R_AF);
                           A  2088    .LINE 79
                           A  2089    
043FF2 010C0000            A  2090    	LD	BC,12
043FF6 DD3106              A  2091    	LD	IY,(IX+%6)
043FF9 FD2700              A  2092    	LD	HL,(IY+%0)
043FFC B7                  A  2093    	OR	A,A
043FFD ED42                A  2094    	SBC	HL,BC
043FFF 20 04               A  2095    	JR	NZ,L__84
044001 3E01                A  2096    	LD	A,%1
044003 18 01               A  2097    	JR	L__85
044005                     A  2098    L__84:
044005 AF                  A  2099    	XOR	A,A
044006                     A  2100    L__85:
                           A  2101    ;   80	}
                           A  2102    .LINE 80
                           A  2103    
044006 DDF9                A  2104    	LD	SP,IX
044008 DDE1                A  2105    	POP	IX
04400A C9                  A  2106    	RET	
                           A  2107    
                           A  2108    
                           A  2109    ;**************************** _af_match *******
                           A  2110    ;Name                         Addr/Register   S
                           A  2111    ;op                                    IX+6    
                           A  2112    
                           A  2113    
                           A  2114    ; Stack Frame Size: 9 (bytes)
                           A  2115    ;       Spill Code: 0 (instruction)
                           A  2116    
                           A  2117    
                           A  2118    .ENDFUNC "af_match",80,"_af_match"
                           A  2119    ;   81	bool de_match(operand *op) {
04400B                     A  2120    _de_match:
                           A  2121    .DEFINE "_de_match"
                           A  2122    
                           A  2123    .VALUE _de_match
                           A  2124    
                           A  2125    .CLASS 2
                           A  2126    
                           A  2127    .TYPE 76
                           A  2128    
                           A  2129    .ENDEF
                           A  2130    
                           A  2131    .BEGFUNC "de_match",81,"_de_match"
                           A  2132    
                           A  2133    .LINE 81
                           A  2134    
                           A  2135    .DEFINE "op"
                           A  2136    
                           A  2137    .CLASS 65
                           A  2138    
                           A  2139    .VALUE 6
                           A  2140    
                           A  2141    .TAG "NONAME3"
                           A  2142    
                           A  2143    .TYPE 40
                           A  2144    
                           A  2145    .ENDEF
                           A  2146    
04400B DDE5                A  2147    	PUSH	IX
04400D DD210000 00         A  2148    	LD	IX,0
044012 DD39                A  2149    	ADD	IX,SP
                           A  2150    ;   82	    return(op->reg == R_DE);
                           A  2151    .LINE 82
                           A  2152    
044014 01090000            A  2153    	LD	BC,9
044018 DD3106              A  2154    	LD	IY,(IX+%6)
04401B FD2700              A  2155    	LD	HL,(IY+%0)
04401E B7                  A  2156    	OR	A,A
04401F ED42                A  2157    	SBC	HL,BC
044021 20 04               A  2158    	JR	NZ,L__88
044023 3E01                A  2159    	LD	A,%1
044025 18 01               A  2160    	JR	L__89
044027                     A  2161    L__88:
044027 AF                  A  2162    	XOR	A,A
044028                     A  2163    L__89:
                           A  2164    ;   83	}
                           A  2165    .LINE 83
                           A  2166    
044028 DDF9                A  2167    	LD	SP,IX
04402A DDE1                A  2168    	POP	IX
04402C C9                  A  2169    	RET	
                           A  2170    
                           A  2171    
                           A  2172    ;**************************** _de_match *******
                           A  2173    ;Name                         Addr/Register   S
                           A  2174    ;op                                    IX+6    
                           A  2175    
                           A  2176    
                           A  2177    ; Stack Frame Size: 9 (bytes)
                           A  2178    ;       Spill Code: 0 (instruction)
                           A  2179    
                           A  2180    
                           A  2181    .ENDFUNC "de_match",83,"_de_match"
                           A  2182    ;   84	bool nselect_match(operand *op) {
04402D                     A  2183    _nselect_match:
                           A  2184    .DEFINE "_nselect_match"
                           A  2185    
                           A  2186    .VALUE _nselect_match
                           A  2187    
                           A  2188    .CLASS 2
                           A  2189    
                           A  2190    .TYPE 76
                           A  2191    
                           A  2192    .ENDEF
                           A  2193    
                           A  2194    .BEGFUNC "nselect_match",84,"_nselect_match"
                           A  2195    
                           A  2196    .LINE 84
                           A  2197    
                           A  2198    .DEFINE "op"
                           A  2199    
                           A  2200    .CLASS 65
                           A  2201    
                           A  2202    .VALUE 6
                           A  2203    
                           A  2204    .TAG "NONAME3"
                           A  2205    
                           A  2206    .TYPE 40
                           A  2207    
                           A  2208    .ENDEF
                           A  2209    
04402D DDE5                A  2210    	PUSH	IX
04402F DD210000 00         A  2211    	LD	IX,0
044034 DD39                A  2212    	ADD	IX,SP
044036 C5                  A  2213    	PUSH	BC
                           A  2214    ;   85	    return (!(op->indirect) && (op->imm
                           A  2215    .LINE 85
                           A  2216    
044037 DD3106              A  2217    	LD	IY,(IX+%6)
04403A FD7E04              A  2218    	LD	A,(IY+%4)
04403D B7                  A  2219    	OR	A,A
04403E 20 12               A  2220    	JR	NZ,L_126
044040 DD3106              A  2221    	LD	IY,(IX+%6)
044043 FD7E0A              A  2222    	LD	A,(IY+%A)
044046 B7                  A  2223    	OR	A,A
044047 28 09               A  2224    	JR	Z,L_126
                           A  2225    ;   86	}
                           A  2226    .LINE 86
                           A  2227    
044049 01010000            A  2228    	LD	BC,1
04404D DD0FFD              A  2229    	LD	(IX+%FFFFFFFD),BC
044050 18 07               A  2230    	JR	L_127
044052                     A  2231    L_126:
044052 01000000            A  2232    	LD	BC,0
044056 DD0FFD              A  2233    	LD	(IX+%FFFFFFFD),BC
044059                     A  2234    L_127:
044059 DD7EFD              A  2235    	LD	A,(IX+%FFFFFFFD)
04405C DDF9                A  2236    	LD	SP,IX
04405E DDE1                A  2237    	POP	IX
044060 C9                  A  2238    	RET	
                           A  2239    
                           A  2240    
                           A  2241    ;**************************** _nselect_match **
                           A  2242    ;Name                         Addr/Register   S
                           A  2243    ;temp128                               IX-3    
                           A  2244    ;op                                    IX+6    
                           A  2245    
                           A  2246    
                           A  2247    ; Stack Frame Size: 12 (bytes)
                           A  2248    ;       Spill Code: 0 (instruction)
                           A  2249    
                           A  2250    
                           A  2251    .ENDFUNC "nselect_match",86,"_nselect_match"
                           A  2252    ;   87	bool indirect_n_match(operand *op) {
044061                     A  2253    _indirect_n_match:
                           A  2254    .DEFINE "_indirect_n_match"
                           A  2255    
                           A  2256    .VALUE _indirect_n_match
                           A  2257    
                           A  2258    .CLASS 2
                           A  2259    
                           A  2260    .TYPE 76
                           A  2261    
                           A  2262    .ENDEF
                           A  2263    
                           A  2264    .BEGFUNC "indirect_n_match",87,"_indirect_n_mat
                           A  2265    
                           A  2266    .LINE 87
                           A  2267    
                           A  2268    .DEFINE "op"
                           A  2269    
                           A  2270    .CLASS 65
                           A  2271    
                           A  2272    .VALUE 6
                           A  2273    
                           A  2274    .TAG "NONAME3"
                           A  2275    
                           A  2276    .TYPE 40
                           A  2277    
                           A  2278    .ENDEF
                           A  2279    
044061 DDE5                A  2280    	PUSH	IX
044063 DD210000 00         A  2281    	LD	IX,0
044068 DD39                A  2282    	ADD	IX,SP
04406A C5                  A  2283    	PUSH	BC
                           A  2284    ;   88	    return ((op->indirect) && (op->imme
                           A  2285    .LINE 88
                           A  2286    
04406B DD3106              A  2287    	LD	IY,(IX+%6)
04406E FD7E04              A  2288    	LD	A,(IY+%4)
044071 B7                  A  2289    	OR	A,A
044072 28 12               A  2290    	JR	Z,L_132
044074 DD3106              A  2291    	LD	IY,(IX+%6)
044077 FD7E0A              A  2292    	LD	A,(IY+%A)
04407A B7                  A  2293    	OR	A,A
04407B 28 09               A  2294    	JR	Z,L_132
                           A  2295    ;   89	}
                           A  2296    .LINE 89
                           A  2297    
04407D 01010000            A  2298    	LD	BC,1
044081 DD0FFD              A  2299    	LD	(IX+%FFFFFFFD),BC
044084 18 07               A  2300    	JR	L_133
044086                     A  2301    L_132:
044086 01000000            A  2302    	LD	BC,0
04408A DD0FFD              A  2303    	LD	(IX+%FFFFFFFD),BC
04408D                     A  2304    L_133:
04408D DD7EFD              A  2305    	LD	A,(IX+%FFFFFFFD)
044090 DDF9                A  2306    	LD	SP,IX
044092 DDE1                A  2307    	POP	IX
044094 C9                  A  2308    	RET	
                           A  2309    
                           A  2310    
                           A  2311    ;**************************** _indirect_n_match
                           A  2312    ;Name                         Addr/Register   S
                           A  2313    ;temp134                               IX-3    
                           A  2314    ;op                                    IX+6    
                           A  2315    
                           A  2316    
                           A  2317    ; Stack Frame Size: 12 (bytes)
                           A  2318    ;       Spill Code: 0 (instruction)
                           A  2319    
                           A  2320    
                           A  2321    .ENDFUNC "indirect_n_match",89,"_indirect_n_mat
                           A  2322    ;   90	bool indirect_bc_match(operand *op) {
044095                     A  2323    _indirect_bc_match:
                           A  2324    .DEFINE "_indirect_bc_match"
                           A  2325    
                           A  2326    .VALUE _indirect_bc_match
                           A  2327    
                           A  2328    .CLASS 2
                           A  2329    
                           A  2330    .TYPE 76
                           A  2331    
                           A  2332    .ENDEF
                           A  2333    
                           A  2334    .BEGFUNC "indirect_bc_match",90,"_indirect_bc_m
                           A  2335    
                           A  2336    .LINE 90
                           A  2337    
                           A  2338    .DEFINE "op"
                           A  2339    
                           A  2340    .CLASS 65
                           A  2341    
                           A  2342    .VALUE 6
                           A  2343    
                           A  2344    .TAG "NONAME3"
                           A  2345    
                           A  2346    .TYPE 40
                           A  2347    
                           A  2348    .ENDEF
                           A  2349    
044095 DDE5                A  2350    	PUSH	IX
044097 DD210000 00         A  2351    	LD	IX,0
04409C DD39                A  2352    	ADD	IX,SP
04409E C5                  A  2353    	PUSH	BC
                           A  2354    ;   91	    return((op->indirect) && (op->reg =
                           A  2355    .LINE 91
                           A  2356    
04409F DD3106              A  2357    	LD	IY,(IX+%6)
0440A2 FD7E04              A  2358    	LD	A,(IY+%4)
0440A5 B7                  A  2359    	OR	A,A
0440A6 28 18               A  2360    	JR	Z,L_138
0440A8 01080000            A  2361    	LD	BC,8
0440AC DD3106              A  2362    	LD	IY,(IX+%6)
0440AF FD2700              A  2363    	LD	HL,(IY+%0)
0440B2 B7                  A  2364    	OR	A,A
0440B3 ED42                A  2365    	SBC	HL,BC
0440B5 20 09               A  2366    	JR	NZ,L_138
                           A  2367    ;   92	}
                           A  2368    .LINE 92
                           A  2369    
0440B7 01010000            A  2370    	LD	BC,1
0440BB DD0FFD              A  2371    	LD	(IX+%FFFFFFFD),BC
0440BE 18 07               A  2372    	JR	L_139
0440C0                     A  2373    L_138:
0440C0 01000000            A  2374    	LD	BC,0
0440C4 DD0FFD              A  2375    	LD	(IX+%FFFFFFFD),BC
0440C7                     A  2376    L_139:
0440C7 DD7EFD              A  2377    	LD	A,(IX+%FFFFFFFD)
0440CA DDF9                A  2378    	LD	SP,IX
0440CC DDE1                A  2379    	POP	IX
0440CE C9                  A  2380    	RET	
                           A  2381    
                           A  2382    
                           A  2383    ;**************************** _indirect_bc_matc
                           A  2384    ;Name                         Addr/Register   S
                           A  2385    ;temp140                               IX-3    
                           A  2386    ;op                                    IX+6    
                           A  2387    
                           A  2388    
                           A  2389    ; Stack Frame Size: 12 (bytes)
                           A  2390    ;       Spill Code: 0 (instruction)
                           A  2391    
                           A  2392    
                           A  2393    .ENDFUNC "indirect_bc_match",92,"_indirect_bc_m
                           A  2394    ;   93	bool indirect_c_match(operand *op) {
0440CF                     A  2395    _indirect_c_match:
                           A  2396    .DEFINE "_indirect_c_match"
                           A  2397    
                           A  2398    .VALUE _indirect_c_match
                           A  2399    
                           A  2400    .CLASS 2
                           A  2401    
                           A  2402    .TYPE 76
                           A  2403    
                           A  2404    .ENDEF
                           A  2405    
                           A  2406    .BEGFUNC "indirect_c_match",93,"_indirect_c_mat
                           A  2407    
                           A  2408    .LINE 93
                           A  2409    
                           A  2410    .DEFINE "op"
                           A  2411    
                           A  2412    .CLASS 65
                           A  2413    
                           A  2414    .VALUE 6
                           A  2415    
                           A  2416    .TAG "NONAME3"
                           A  2417    
                           A  2418    .TYPE 40
                           A  2419    
                           A  2420    .ENDEF
                           A  2421    
0440CF DDE5                A  2422    	PUSH	IX
0440D1 DD210000 00         A  2423    	LD	IX,0
0440D6 DD39                A  2424    	ADD	IX,SP
0440D8 C5                  A  2425    	PUSH	BC
                           A  2426    ;   94	    return((op->indirect) && (op->reg =
                           A  2427    .LINE 94
                           A  2428    
0440D9 DD3106              A  2429    	LD	IY,(IX+%6)
0440DC FD7E04              A  2430    	LD	A,(IY+%4)
0440DF B7                  A  2431    	OR	A,A
0440E0 28 18               A  2432    	JR	Z,L_144
0440E2 01030000            A  2433    	LD	BC,3
0440E6 DD3106              A  2434    	LD	IY,(IX+%6)
0440E9 FD2700              A  2435    	LD	HL,(IY+%0)
0440EC B7                  A  2436    	OR	A,A
0440ED ED42                A  2437    	SBC	HL,BC
0440EF 20 09               A  2438    	JR	NZ,L_144
                           A  2439    ;   95	}
                           A  2440    .LINE 95
                           A  2441    
0440F1 01010000            A  2442    	LD	BC,1
0440F5 DD0FFD              A  2443    	LD	(IX+%FFFFFFFD),BC
0440F8 18 07               A  2444    	JR	L_145
0440FA                     A  2445    L_144:
0440FA 01000000            A  2446    	LD	BC,0
0440FE DD0FFD              A  2447    	LD	(IX+%FFFFFFFD),BC
044101                     A  2448    L_145:
044101 DD7EFD              A  2449    	LD	A,(IX+%FFFFFFFD)
044104 DDF9                A  2450    	LD	SP,IX
044106 DDE1                A  2451    	POP	IX
044108 C9                  A  2452    	RET	
                           A  2453    
                           A  2454    
                           A  2455    ;**************************** _indirect_c_match
                           A  2456    ;Name                         Addr/Register   S
                           A  2457    ;temp146                               IX-3    
                           A  2458    ;op                                    IX+6    
                           A  2459    
                           A  2460    
                           A  2461    ; Stack Frame Size: 12 (bytes)
                           A  2462    ;       Spill Code: 0 (instruction)
                           A  2463    
                           A  2464    
                           A  2465    .ENDFUNC "indirect_c_match",95,"_indirect_c_mat
                           A  2466    ;   96	bool indirect_ixy_match(operand *op) {
044109                     A  2467    _indirect_ixy_match:
                           A  2468    .DEFINE "_indirect_ixy_match"
                           A  2469    
                           A  2470    .VALUE _indirect_ixy_match
                           A  2471    
                           A  2472    .CLASS 2
                           A  2473    
                           A  2474    .TYPE 76
                           A  2475    
                           A  2476    .ENDEF
                           A  2477    
                           A  2478    .BEGFUNC "indirect_ixy_match",96,"_indirect_ixy
                           A  2479    
                           A  2480    .LINE 96
                           A  2481    
                           A  2482    .DEFINE "op"
                           A  2483    
                           A  2484    .CLASS 65
                           A  2485    
                           A  2486    .VALUE 6
                           A  2487    
                           A  2488    .TAG "NONAME3"
                           A  2489    
                           A  2490    .TYPE 40
                           A  2491    
                           A  2492    .ENDEF
                           A  2493    
044109 DDE5                A  2494    	PUSH	IX
04410B DD210000 00         A  2495    	LD	IX,0
044110 DD39                A  2496    	ADD	IX,SP
044112 C5                  A  2497    	PUSH	BC
044113 C5                  A  2498    	PUSH	BC
                           A  2499    ;   97	    return (((op->reg == R_IX) || (op->
                           A  2500    .LINE 97
                           A  2501    
044114 DD3106              A  2502    	LD	IY,(IX+%6)
044117 FD0700              A  2503    	LD	BC,(IY+%0)
04411A DD0FFD              A  2504    	LD	(IX+%FFFFFFFD),BC
04411D 010D0000            A  2505    	LD	BC,13
044121 DD27FD              A  2506    	LD	HL,(IX+%FFFFFFFD)
044124 B7                  A  2507    	OR	A,A
044125 ED42                A  2508    	SBC	HL,BC
044127 28 0C               A  2509    	JR	Z,L_149
044129 010E0000            A  2510    	LD	BC,14
04412D DD27FD              A  2511    	LD	HL,(IX+%FFFFFFFD)
044130 B7                  A  2512    	OR	A,A
044131 ED42                A  2513    	SBC	HL,BC
044133 20 1B               A  2514    	JR	NZ,L_152
044135                     A  2515    L_149:
044135 DD3106              A  2516    	LD	IY,(IX+%6)
044138 FD7E04              A  2517    	LD	A,(IY+%4)
04413B B7                  A  2518    	OR	A,A
04413C 28 12               A  2519    	JR	Z,L_152
04413E DD3106              A  2520    	LD	IY,(IX+%6)
044141 FD7E09              A  2521    	LD	A,(IY+%9)
044144 B7                  A  2522    	OR	A,A
044145 20 09               A  2523    	JR	NZ,L_152
                           A  2524    ;   98	}
                           A  2525    .LINE 98
                           A  2526    
044147 01010000            A  2527    	LD	BC,1
04414B DD0FFA              A  2528    	LD	(IX+%FFFFFFFA),BC
04414E 18 07               A  2529    	JR	L_153
044150                     A  2530    L_152:
044150 01000000            A  2531    	LD	BC,0
044154 DD0FFA              A  2532    	LD	(IX+%FFFFFFFA),BC
044157                     A  2533    L_153:
044157 DD7EFA              A  2534    	LD	A,(IX+%FFFFFFFA)
04415A DDF9                A  2535    	LD	SP,IX
04415C DDE1                A  2536    	POP	IX
04415E C9                  A  2537    	RET	
                           A  2538    
                           A  2539    
                           A  2540    ;**************************** _indirect_ixy_mat
                           A  2541    ;Name                         Addr/Register   S
                           A  2542    ;temp154                               IX-6    
                           A  2543    ;G_10                                  IX-3    
                           A  2544    ;op                                    IX+6    
                           A  2545    
                           A  2546    
                           A  2547    ; Stack Frame Size: 15 (bytes)
                           A  2548    ;       Spill Code: 0 (instruction)
                           A  2549    
                           A  2550    
                           A  2551    .ENDFUNC "indirect_ixy_match",98,"_indirect_ixy
                           A  2552    ;   99	bool cca_match(operand *op) {
04415F                     A  2553    _cca_match:
                           A  2554    .DEFINE "_cca_match"
                           A  2555    
                           A  2556    .VALUE _cca_match
                           A  2557    
                           A  2558    .CLASS 2
                           A  2559    
                           A  2560    .TYPE 76
                           A  2561    
                           A  2562    .ENDEF
                           A  2563    
                           A  2564    .BEGFUNC "cca_match",99,"_cca_match"
                           A  2565    
                           A  2566    .LINE 99
                           A  2567    
                           A  2568    .DEFINE "op"
                           A  2569    
                           A  2570    .CLASS 65
                           A  2571    
                           A  2572    .VALUE 6
                           A  2573    
                           A  2574    .TAG "NONAME3"
                           A  2575    
                           A  2576    .TYPE 40
                           A  2577    
                           A  2578    .ENDEF
                           A  2579    
04415F DDE5                A  2580    	PUSH	IX
044161 DD210000 00         A  2581    	LD	IX,0
044166 DD39                A  2582    	ADD	IX,SP
044168 C5                  A  2583    	PUSH	BC
044169 3B                  A  2584    	DEC	SP
                           A  2585    ;  100	    return ((op->cc) && 
                           A  2586    .LINE 100
                           A  2587    
04416A DD3106              A  2588    	LD	IY,(IX+%6)
04416D FD7E05              A  2589    	LD	A,(IY+%5)
044170 B7                  A  2590    	OR	A,A
044171 28 2A               A  2591    	JR	Z,L_161
                           A  2592    ;  101	            ((op->cc_index == CC_INDEX_
                           A  2593    .LINE 101
                           A  2594    
044173 DD3106              A  2595    	LD	IY,(IX+%6)
044176 FD7E06              A  2596    	LD	A,(IY+%6)
044179 DD77FF              A  2597    	LD	(IX+%FFFFFFFF),A
04417C B7                  A  2598    	OR	A,A
04417D 28 15               A  2599    	JR	Z,L_160
                           A  2600    ;  102	             (op->cc_index == CC_INDEX_
                           A  2601    .LINE 102
                           A  2602    
04417F DD7EFF              A  2603    	LD	A,(IX+%FFFFFFFF)
044182 FE01                A  2604    	CP	A,%1
044184 28 0E               A  2605    	JR	Z,L_160
                           A  2606    ;  103	             (op->cc_index == CC_INDEX_
                           A  2607    .LINE 103
                           A  2608    
044186 DD7EFF              A  2609    	LD	A,(IX+%FFFFFFFF)
044189 FE02                A  2610    	CP	A,%2
04418B 28 07               A  2611    	JR	Z,L_160
                           A  2612    ;  104	             (op->cc_index == CC_INDEX_
                           A  2613    .LINE 104
                           A  2614    
04418D DD7EFF              A  2615    	LD	A,(IX+%FFFFFFFF)
044190 FE03                A  2616    	CP	A,%3
044192 20 09               A  2617    	JR	NZ,L_161
044194                     A  2618    L_160:
                           A  2619    ;  105	}
                           A  2620    .LINE 105
                           A  2621    
044194 01010000            A  2622    	LD	BC,1
044198 DD0FFC              A  2623    	LD	(IX+%FFFFFFFC),BC
04419B 18 07               A  2624    	JR	L_162
04419D                     A  2625    L_161:
04419D 01000000            A  2626    	LD	BC,0
0441A1 DD0FFC              A  2627    	LD	(IX+%FFFFFFFC),BC
0441A4                     A  2628    L_162:
0441A4 DD7EFC              A  2629    	LD	A,(IX+%FFFFFFFC)
0441A7 DDF9                A  2630    	LD	SP,IX
0441A9 DDE1                A  2631    	POP	IX
0441AB C9                  A  2632    	RET	
                           A  2633    
                           A  2634    
                           A  2635    ;**************************** _cca_match ******
                           A  2636    ;Name                         Addr/Register   S
                           A  2637    ;temp163                               IX-4    
                           A  2638    ;G_11                                  IX-1    
                           A  2639    ;op                                    IX+6    
                           A  2640    
                           A  2641    
                           A  2642    ; Stack Frame Size: 13 (bytes)
                           A  2643    ;       Spill Code: 0 (instruction)
                           A  2644    
                           A  2645    
                           A  2646    .ENDFUNC "cca_match",105,"_cca_match"
                           A  2647    ;  106	bool indirect_de_match(operand *op) {
0441AC                     A  2648    _indirect_de_match:
                           A  2649    .DEFINE "_indirect_de_match"
                           A  2650    
                           A  2651    .VALUE _indirect_de_match
                           A  2652    
                           A  2653    .CLASS 2
                           A  2654    
                           A  2655    .TYPE 76
                           A  2656    
                           A  2657    .ENDEF
                           A  2658    
                           A  2659    .BEGFUNC "indirect_de_match",106,"_indirect_de_
                           A  2660    
                           A  2661    .LINE 106
                           A  2662    
                           A  2663    .DEFINE "op"
                           A  2664    
                           A  2665    .CLASS 65
                           A  2666    
                           A  2667    .VALUE 6
                           A  2668    
                           A  2669    .TAG "NONAME3"
                           A  2670    
                           A  2671    .TYPE 40
                           A  2672    
                           A  2673    .ENDEF
                           A  2674    
0441AC DDE5                A  2675    	PUSH	IX
0441AE DD210000 00         A  2676    	LD	IX,0
0441B3 DD39                A  2677    	ADD	IX,SP
0441B5 C5                  A  2678    	PUSH	BC
                           A  2679    ;  107	    return((op->indirect) && (op->reg =
                           A  2680    .LINE 107
                           A  2681    
0441B6 DD3106              A  2682    	LD	IY,(IX+%6)
0441B9 FD7E04              A  2683    	LD	A,(IY+%4)
0441BC B7                  A  2684    	OR	A,A
0441BD 28 18               A  2685    	JR	Z,L_167
0441BF 01090000            A  2686    	LD	BC,9
0441C3 DD3106              A  2687    	LD	IY,(IX+%6)
0441C6 FD2700              A  2688    	LD	HL,(IY+%0)
0441C9 B7                  A  2689    	OR	A,A
0441CA ED42                A  2690    	SBC	HL,BC
0441CC 20 09               A  2691    	JR	NZ,L_167
                           A  2692    ;  108	}
                           A  2693    .LINE 108
                           A  2694    
0441CE 01010000            A  2695    	LD	BC,1
0441D2 DD0FFD              A  2696    	LD	(IX+%FFFFFFFD),BC
0441D5 18 07               A  2697    	JR	L_168
0441D7                     A  2698    L_167:
0441D7 01000000            A  2699    	LD	BC,0
0441DB DD0FFD              A  2700    	LD	(IX+%FFFFFFFD),BC
0441DE                     A  2701    L_168:
0441DE DD7EFD              A  2702    	LD	A,(IX+%FFFFFFFD)
0441E1 DDF9                A  2703    	LD	SP,IX
0441E3 DDE1                A  2704    	POP	IX
0441E5 C9                  A  2705    	RET	
                           A  2706    
                           A  2707    
                           A  2708    ;**************************** _indirect_de_matc
                           A  2709    ;Name                         Addr/Register   S
                           A  2710    ;temp169                               IX-3    
                           A  2711    ;op                                    IX+6    
                           A  2712    
                           A  2713    
                           A  2714    ; Stack Frame Size: 12 (bytes)
                           A  2715    ;       Spill Code: 0 (instruction)
                           A  2716    
                           A  2717    
                           A  2718    .ENDFUNC "indirect_de_match",108,"_indirect_de_
                           A  2719    ;  109	bool ix_match(operand *op) {
0441E6                     A  2720    _ix_match:
                           A  2721    .DEFINE "_ix_match"
                           A  2722    
                           A  2723    .VALUE _ix_match
                           A  2724    
                           A  2725    .CLASS 2
                           A  2726    
                           A  2727    .TYPE 76
                           A  2728    
                           A  2729    .ENDEF
                           A  2730    
                           A  2731    .BEGFUNC "ix_match",109,"_ix_match"
                           A  2732    
                           A  2733    .LINE 109
                           A  2734    
                           A  2735    .DEFINE "op"
                           A  2736    
                           A  2737    .CLASS 65
                           A  2738    
                           A  2739    .VALUE 6
                           A  2740    
                           A  2741    .TAG "NONAME3"
                           A  2742    
                           A  2743    .TYPE 40
                           A  2744    
                           A  2745    .ENDEF
                           A  2746    
0441E6 DDE5                A  2747    	PUSH	IX
0441E8 DD210000 00         A  2748    	LD	IX,0
0441ED DD39                A  2749    	ADD	IX,SP
0441EF C5                  A  2750    	PUSH	BC
                           A  2751    ;  110	    return(!(op->indirect) && (op->reg 
                           A  2752    .LINE 110
                           A  2753    
0441F0 DD3106              A  2754    	LD	IY,(IX+%6)
0441F3 FD7E04              A  2755    	LD	A,(IY+%4)
0441F6 B7                  A  2756    	OR	A,A
0441F7 20 18               A  2757    	JR	NZ,L_173
0441F9 010D0000            A  2758    	LD	BC,13
0441FD DD3106              A  2759    	LD	IY,(IX+%6)
044200 FD2700              A  2760    	LD	HL,(IY+%0)
044203 B7                  A  2761    	OR	A,A
044204 ED42                A  2762    	SBC	HL,BC
044206 20 09               A  2763    	JR	NZ,L_173
                           A  2764    ;  111	}
                           A  2765    .LINE 111
                           A  2766    
044208 01010000            A  2767    	LD	BC,1
04420C DD0FFD              A  2768    	LD	(IX+%FFFFFFFD),BC
04420F 18 07               A  2769    	JR	L_174
044211                     A  2770    L_173:
044211 01000000            A  2771    	LD	BC,0
044215 DD0FFD              A  2772    	LD	(IX+%FFFFFFFD),BC
044218                     A  2773    L_174:
044218 DD7EFD              A  2774    	LD	A,(IX+%FFFFFFFD)
04421B DDF9                A  2775    	LD	SP,IX
04421D DDE1                A  2776    	POP	IX
04421F C9                  A  2777    	RET	
                           A  2778    
                           A  2779    
                           A  2780    ;**************************** _ix_match *******
                           A  2781    ;Name                         Addr/Register   S
                           A  2782    ;temp175                               IX-3    
                           A  2783    ;op                                    IX+6    
                           A  2784    
                           A  2785    
                           A  2786    ; Stack Frame Size: 12 (bytes)
                           A  2787    ;       Spill Code: 0 (instruction)
                           A  2788    
                           A  2789    
                           A  2790    .ENDFUNC "ix_match",111,"_ix_match"
                           A  2791    ;  112	bool iy_match(operand *op) {
044220                     A  2792    _iy_match:
                           A  2793    .DEFINE "_iy_match"
                           A  2794    
                           A  2795    .VALUE _iy_match
                           A  2796    
                           A  2797    .CLASS 2
                           A  2798    
                           A  2799    .TYPE 76
                           A  2800    
                           A  2801    .ENDEF
                           A  2802    
                           A  2803    .BEGFUNC "iy_match",112,"_iy_match"
                           A  2804    
                           A  2805    .LINE 112
                           A  2806    
                           A  2807    .DEFINE "op"
                           A  2808    
                           A  2809    .CLASS 65
                           A  2810    
                           A  2811    .VALUE 6
                           A  2812    
                           A  2813    .TAG "NONAME3"
                           A  2814    
                           A  2815    .TYPE 40
                           A  2816    
                           A  2817    .ENDEF
                           A  2818    
044220 DDE5                A  2819    	PUSH	IX
044222 DD210000 00         A  2820    	LD	IX,0
044227 DD39                A  2821    	ADD	IX,SP
044229 C5                  A  2822    	PUSH	BC
                           A  2823    ;  113	    return(!(op->indirect) && (op->reg 
                           A  2824    .LINE 113
                           A  2825    
04422A DD3106              A  2826    	LD	IY,(IX+%6)
04422D FD7E04              A  2827    	LD	A,(IY+%4)
044230 B7                  A  2828    	OR	A,A
044231 20 18               A  2829    	JR	NZ,L_179
044233 010E0000            A  2830    	LD	BC,14
044237 DD3106              A  2831    	LD	IY,(IX+%6)
04423A FD2700              A  2832    	LD	HL,(IY+%0)
04423D B7                  A  2833    	OR	A,A
04423E ED42                A  2834    	SBC	HL,BC
044240 20 09               A  2835    	JR	NZ,L_179
                           A  2836    ;  114	}
                           A  2837    .LINE 114
                           A  2838    
044242 01010000            A  2839    	LD	BC,1
044246 DD0FFD              A  2840    	LD	(IX+%FFFFFFFD),BC
044249 18 07               A  2841    	JR	L_180
04424B                     A  2842    L_179:
04424B 01000000            A  2843    	LD	BC,0
04424F DD0FFD              A  2844    	LD	(IX+%FFFFFFFD),BC
044252                     A  2845    L_180:
044252 DD7EFD              A  2846    	LD	A,(IX+%FFFFFFFD)
044255 DDF9                A  2847    	LD	SP,IX
044257 DDE1                A  2848    	POP	IX
044259 C9                  A  2849    	RET	
                           A  2850    
                           A  2851    
                           A  2852    ;**************************** _iy_match *******
                           A  2853    ;Name                         Addr/Register   S
                           A  2854    ;temp181                               IX-3    
                           A  2855    ;op                                    IX+6    
                           A  2856    
                           A  2857    
                           A  2858    ; Stack Frame Size: 12 (bytes)
                           A  2859    ;       Spill Code: 0 (instruction)
                           A  2860    
                           A  2861    
                           A  2862    .ENDFUNC "iy_match",114,"_iy_match"
                           A  2863    ;  115	bool ixd_match(operand *op) {
04425A                     A  2864    _ixd_match:
                           A  2865    .DEFINE "_ixd_match"
                           A  2866    
                           A  2867    .VALUE _ixd_match
                           A  2868    
                           A  2869    .CLASS 2
                           A  2870    
                           A  2871    .TYPE 76
                           A  2872    
                           A  2873    .ENDEF
                           A  2874    
                           A  2875    .BEGFUNC "ixd_match",115,"_ixd_match"
                           A  2876    
                           A  2877    .LINE 115
                           A  2878    
                           A  2879    .DEFINE "op"
                           A  2880    
                           A  2881    .CLASS 65
                           A  2882    
                           A  2883    .VALUE 6
                           A  2884    
                           A  2885    .TAG "NONAME3"
                           A  2886    
                           A  2887    .TYPE 40
                           A  2888    
                           A  2889    .ENDEF
                           A  2890    
04425A DDE5                A  2891    	PUSH	IX
04425C DD210000 00         A  2892    	LD	IX,0
044261 DD39                A  2893    	ADD	IX,SP
044263 C5                  A  2894    	PUSH	BC
                           A  2895    ;  116	    return(!(op->indirect) && (op->reg 
                           A  2896    .LINE 116
                           A  2897    
044264 DD3106              A  2898    	LD	IY,(IX+%6)
044267 FD7E04              A  2899    	LD	A,(IY+%4)
04426A B7                  A  2900    	OR	A,A
04426B 20 18               A  2901    	JR	NZ,L_185
04426D 010D0000            A  2902    	LD	BC,13
044271 DD3106              A  2903    	LD	IY,(IX+%6)
044274 FD2700              A  2904    	LD	HL,(IY+%0)
044277 B7                  A  2905    	OR	A,A
044278 ED42                A  2906    	SBC	HL,BC
04427A 20 09               A  2907    	JR	NZ,L_185
                           A  2908    ;  117	}
                           A  2909    .LINE 117
                           A  2910    
04427C 01010000            A  2911    	LD	BC,1
044280 DD0FFD              A  2912    	LD	(IX+%FFFFFFFD),BC
044283 18 07               A  2913    	JR	L_186
044285                     A  2914    L_185:
044285 01000000            A  2915    	LD	BC,0
044289 DD0FFD              A  2916    	LD	(IX+%FFFFFFFD),BC
04428C                     A  2917    L_186:
04428C DD7EFD              A  2918    	LD	A,(IX+%FFFFFFFD)
04428F DDF9                A  2919    	LD	SP,IX
044291 DDE1                A  2920    	POP	IX
044293 C9                  A  2921    	RET	
                           A  2922    
                           A  2923    
                           A  2924    ;**************************** _ixd_match ******
                           A  2925    ;Name                         Addr/Register   S
                           A  2926    ;temp187                               IX-3    
                           A  2927    ;op                                    IX+6    
                           A  2928    
                           A  2929    
                           A  2930    ; Stack Frame Size: 12 (bytes)
                           A  2931    ;       Spill Code: 0 (instruction)
                           A  2932    
                           A  2933    
                           A  2934    .ENDFUNC "ixd_match",117,"_ixd_match"
                           A  2935    ;  118	bool iyd_match(operand *op) {
044294                     A  2936    _iyd_match:
                           A  2937    .DEFINE "_iyd_match"
                           A  2938    
                           A  2939    .VALUE _iyd_match
                           A  2940    
                           A  2941    .CLASS 2
                           A  2942    
                           A  2943    .TYPE 76
                           A  2944    
                           A  2945    .ENDEF
                           A  2946    
                           A  2947    .BEGFUNC "iyd_match",118,"_iyd_match"
                           A  2948    
                           A  2949    .LINE 118
                           A  2950    
                           A  2951    .DEFINE "op"
                           A  2952    
                           A  2953    .CLASS 65
                           A  2954    
                           A  2955    .VALUE 6
                           A  2956    
                           A  2957    .TAG "NONAME3"
                           A  2958    
                           A  2959    .TYPE 40
                           A  2960    
                           A  2961    .ENDEF
                           A  2962    
044294 DDE5                A  2963    	PUSH	IX
044296 DD210000 00         A  2964    	LD	IX,0
04429B DD39                A  2965    	ADD	IX,SP
04429D C5                  A  2966    	PUSH	BC
                           A  2967    ;  119	    return(!(op->indirect) && (op->reg 
                           A  2968    .LINE 119
                           A  2969    
04429E DD3106              A  2970    	LD	IY,(IX+%6)
0442A1 FD7E04              A  2971    	LD	A,(IY+%4)
0442A4 B7                  A  2972    	OR	A,A
0442A5 20 18               A  2973    	JR	NZ,L_191
0442A7 010E0000            A  2974    	LD	BC,14
0442AB DD3106              A  2975    	LD	IY,(IX+%6)
0442AE FD2700              A  2976    	LD	HL,(IY+%0)
0442B1 B7                  A  2977    	OR	A,A
0442B2 ED42                A  2978    	SBC	HL,BC
0442B4 20 09               A  2979    	JR	NZ,L_191
                           A  2980    ;  120	}
                           A  2981    .LINE 120
                           A  2982    
0442B6 01010000            A  2983    	LD	BC,1
0442BA DD0FFD              A  2984    	LD	(IX+%FFFFFFFD),BC
0442BD 18 07               A  2985    	JR	L_192
0442BF                     A  2986    L_191:
0442BF 01000000            A  2987    	LD	BC,0
0442C3 DD0FFD              A  2988    	LD	(IX+%FFFFFFFD),BC
0442C6                     A  2989    L_192:
0442C6 DD7EFD              A  2990    	LD	A,(IX+%FFFFFFFD)
0442C9 DDF9                A  2991    	LD	SP,IX
0442CB DDE1                A  2992    	POP	IX
0442CD C9                  A  2993    	RET	
                           A  2994    
                           A  2995    
                           A  2996    ;**************************** _iyd_match ******
                           A  2997    ;Name                         Addr/Register   S
                           A  2998    ;temp193                               IX-3    
                           A  2999    ;op                                    IX+6    
                           A  3000    
                           A  3001    
                           A  3002    ; Stack Frame Size: 12 (bytes)
                           A  3003    ;       Spill Code: 0 (instruction)
                           A  3004    
                           A  3005    
                           A  3006    .ENDFUNC "iyd_match",120,"_iyd_match"
                           A  3007    ;  121	bool indirect_ixd_match(operand *op) {
0442CE                     A  3008    _indirect_ixd_match:
                           A  3009    .DEFINE "_indirect_ixd_match"
                           A  3010    
                           A  3011    .VALUE _indirect_ixd_match
                           A  3012    
                           A  3013    .CLASS 2
                           A  3014    
                           A  3015    .TYPE 76
                           A  3016    
                           A  3017    .ENDEF
                           A  3018    
                           A  3019    .BEGFUNC "indirect_ixd_match",121,"_indirect_ix
                           A  3020    
                           A  3021    .LINE 121
                           A  3022    
                           A  3023    .DEFINE "op"
                           A  3024    
                           A  3025    .CLASS 65
                           A  3026    
                           A  3027    .VALUE 6
                           A  3028    
                           A  3029    .TAG "NONAME3"
                           A  3030    
                           A  3031    .TYPE 40
                           A  3032    
                           A  3033    .ENDEF
                           A  3034    
0442CE DDE5                A  3035    	PUSH	IX
0442D0 DD210000 00         A  3036    	LD	IX,0
0442D5 DD39                A  3037    	ADD	IX,SP
0442D7 C5                  A  3038    	PUSH	BC
                           A  3039    ;  122	    return((op->indirect) && (op->reg =
                           A  3040    .LINE 122
                           A  3041    
0442D8 DD3106              A  3042    	LD	IY,(IX+%6)
0442DB FD7E04              A  3043    	LD	A,(IY+%4)
0442DE B7                  A  3044    	OR	A,A
0442DF 28 18               A  3045    	JR	Z,L_197
0442E1 010D0000            A  3046    	LD	BC,13
0442E5 DD3106              A  3047    	LD	IY,(IX+%6)
0442E8 FD2700              A  3048    	LD	HL,(IY+%0)
0442EB B7                  A  3049    	OR	A,A
0442EC ED42                A  3050    	SBC	HL,BC
0442EE 20 09               A  3051    	JR	NZ,L_197
                           A  3052    ;  123	}
                           A  3053    .LINE 123
                           A  3054    
0442F0 01010000            A  3055    	LD	BC,1
0442F4 DD0FFD              A  3056    	LD	(IX+%FFFFFFFD),BC
0442F7 18 07               A  3057    	JR	L_198
0442F9                     A  3058    L_197:
0442F9 01000000            A  3059    	LD	BC,0
0442FD DD0FFD              A  3060    	LD	(IX+%FFFFFFFD),BC
044300                     A  3061    L_198:
044300 DD7EFD              A  3062    	LD	A,(IX+%FFFFFFFD)
044303 DDF9                A  3063    	LD	SP,IX
044305 DDE1                A  3064    	POP	IX
044307 C9                  A  3065    	RET	
                           A  3066    
                           A  3067    
                           A  3068    ;**************************** _indirect_ixd_mat
                           A  3069    ;Name                         Addr/Register   S
                           A  3070    ;temp199                               IX-3    
                           A  3071    ;op                                    IX+6    
                           A  3072    
                           A  3073    
                           A  3074    ; Stack Frame Size: 12 (bytes)
                           A  3075    ;       Spill Code: 0 (instruction)
                           A  3076    
                           A  3077    
                           A  3078    .ENDFUNC "indirect_ixd_match",123,"_indirect_ix
                           A  3079    ;  124	bool indirect_iyd_match(operand *op) {
044308                     A  3080    _indirect_iyd_match:
                           A  3081    .DEFINE "_indirect_iyd_match"
                           A  3082    
                           A  3083    .VALUE _indirect_iyd_match
                           A  3084    
                           A  3085    .CLASS 2
                           A  3086    
                           A  3087    .TYPE 76
                           A  3088    
                           A  3089    .ENDEF
                           A  3090    
                           A  3091    .BEGFUNC "indirect_iyd_match",124,"_indirect_iy
                           A  3092    
                           A  3093    .LINE 124
                           A  3094    
                           A  3095    .DEFINE "op"
                           A  3096    
                           A  3097    .CLASS 65
                           A  3098    
                           A  3099    .VALUE 6
                           A  3100    
                           A  3101    .TAG "NONAME3"
                           A  3102    
                           A  3103    .TYPE 40
                           A  3104    
                           A  3105    .ENDEF
                           A  3106    
044308 DDE5                A  3107    	PUSH	IX
04430A DD210000 00         A  3108    	LD	IX,0
04430F DD39                A  3109    	ADD	IX,SP
044311 C5                  A  3110    	PUSH	BC
                           A  3111    ;  125	    return((op->indirect) && (op->reg =
                           A  3112    .LINE 125
                           A  3113    
044312 DD3106              A  3114    	LD	IY,(IX+%6)
044315 FD7E04              A  3115    	LD	A,(IY+%4)
044318 B7                  A  3116    	OR	A,A
044319 28 18               A  3117    	JR	Z,L_203
04431B 010E0000            A  3118    	LD	BC,14
04431F DD3106              A  3119    	LD	IY,(IX+%6)
044322 FD2700              A  3120    	LD	HL,(IY+%0)
044325 B7                  A  3121    	OR	A,A
044326 ED42                A  3122    	SBC	HL,BC
044328 20 09               A  3123    	JR	NZ,L_203
                           A  3124    ;  126	}
                           A  3125    .LINE 126
                           A  3126    
04432A 01010000            A  3127    	LD	BC,1
04432E DD0FFD              A  3128    	LD	(IX+%FFFFFFFD),BC
044331 18 07               A  3129    	JR	L_204
044333                     A  3130    L_203:
044333 01000000            A  3131    	LD	BC,0
044337 DD0FFD              A  3132    	LD	(IX+%FFFFFFFD),BC
04433A                     A  3133    L_204:
04433A DD7EFD              A  3134    	LD	A,(IX+%FFFFFFFD)
04433D DDF9                A  3135    	LD	SP,IX
04433F DDE1                A  3136    	POP	IX
044341 C9                  A  3137    	RET	
                           A  3138    
                           A  3139    
                           A  3140    ;**************************** _indirect_iyd_mat
                           A  3141    ;Name                         Addr/Register   S
                           A  3142    ;temp205                               IX-3    
                           A  3143    ;op                                    IX+6    
                           A  3144    
                           A  3145    
                           A  3146    ; Stack Frame Size: 12 (bytes)
                           A  3147    ;       Spill Code: 0 (instruction)
                           A  3148    
                           A  3149    
                           A  3150    .ENDFUNC "indirect_iyd_match",126,"_indirect_iy
                           A  3151    ;  127	bool raeonly_match(operand *op) {
044342                     A  3152    _raeonly_match:
                           A  3153    .DEFINE "_raeonly_match"
                           A  3154    
                           A  3155    .VALUE _raeonly_match
                           A  3156    
                           A  3157    .CLASS 2
                           A  3158    
                           A  3159    .TYPE 76
                           A  3160    
                           A  3161    .ENDEF
                           A  3162    
                           A  3163    .BEGFUNC "raeonly_match",127,"_raeonly_match"
                           A  3164    
                           A  3165    .LINE 127
                           A  3166    
                           A  3167    .DEFINE "op"
                           A  3168    
                           A  3169    .CLASS 65
                           A  3170    
                           A  3171    .VALUE 6
                           A  3172    
                           A  3173    .TAG "NONAME3"
                           A  3174    
                           A  3175    .TYPE 40
                           A  3176    
                           A  3177    .ENDEF
                           A  3178    
044342 DDE5                A  3179    	PUSH	IX
044344 DD210000 00         A  3180    	LD	IX,0
044349 DD39                A  3181    	ADD	IX,SP
04434B C5                  A  3182    	PUSH	BC
04434C C5                  A  3183    	PUSH	BC
                           A  3184    ;  128	    return((op->reg >= R_A) && (op->reg
                           A  3185    .LINE 128
                           A  3186    
04434D DD3106              A  3187    	LD	IY,(IX+%6)
044350 FD0700              A  3188    	LD	BC,(IY+%0)
044353 DD0FFD              A  3189    	LD	(IX+%FFFFFFFD),BC
044356 01010000            A  3190    	LD	BC,1
04435A DD27FD              A  3191    	LD	HL,(IX+%FFFFFFFD)
04435D B7                  A  3192    	OR	A,A
04435E ED42                A  3193    	SBC	HL,BC
044360 FA 7F 43 04         A  3194    	JP	M,L_209
044364 DD07FD              A  3195    	LD	BC,(IX+%FFFFFFFD)
044367 21050000            A  3196    	LD	HL,5
04436B B7                  A  3197    	OR	A,A
04436C ED42                A  3198    	SBC	HL,BC
04436E CD 1D 64 04         A  3199    	CALL	__setflag
044372 FA 7F 43 04         A  3200    	JP	M,L_209
                           A  3201    ;  129	}
                           A  3202    .LINE 129
                           A  3203    
044376 01010000            A  3204    	LD	BC,1
04437A DD0FFA              A  3205    	LD	(IX+%FFFFFFFA),BC
04437D 18 07               A  3206    	JR	L_210
04437F                     A  3207    L_209:
04437F 01000000            A  3208    	LD	BC,0
044383 DD0FFA              A  3209    	LD	(IX+%FFFFFFFA),BC
044386                     A  3210    L_210:
044386 DD7EFA              A  3211    	LD	A,(IX+%FFFFFFFA)
044389 DDF9                A  3212    	LD	SP,IX
04438B DDE1                A  3213    	POP	IX
04438D C9                  A  3214    	RET	
                           A  3215    
                           A  3216    
                           A  3217    ;**************************** _raeonly_match **
                           A  3218    ;Name                         Addr/Register   S
                           A  3219    ;temp211                               IX-6    
                           A  3220    ;G_14                                  IX-3    
                           A  3221    ;op                                    IX+6    
                           A  3222    
                           A  3223    
                           A  3224    ; Stack Frame Size: 15 (bytes)
                           A  3225    ;       Spill Code: 0 (instruction)
                           A  3226    
                           A  3227    
                           A  3228    .ENDFUNC "raeonly_match",129,"_raeonly_match"
                           A  3229    	SEGMENT DATA
047201                     A  3230    _permittype_matchlist:
047201 0000                A  3231    	DW	0
047203 00                  A  3232    	DB	0
047204 833A04              A  3233    	DW24	_none_match
047207 0100                A  3234    	DW	1
047209 00                  A  3235    	DB	0
04720A EC3A04              A  3236    	DW24	_cc_match
04720D 0200                A  3237    	DW	2
04720F 00                  A  3238    	DB	0
047210 003B04              A  3239    	DW24	_ir_match
047213 0300                A  3240    	DW	3
047215 00                  A  3241    	DB	0
047216 553B04              A  3242    	DW24	_ixy_match
047219 0400                A  3243    	DW	4
04721B 00                  A  3244    	DB	0
04721C AB3B04              A  3245    	DW24	_ixyd_match
04721F 0500                A  3246    	DW	5
047221 00                  A  3247    	DB	0
047222 013C04              A  3248    	DW24	_indirect_ixyd_match
047225 0600                A  3249    	DW	6
047227 00                  A  3250    	DB	0
047228 4E3C04              A  3251    	DW24	_mmn_match
04722B 0700                A  3252    	DW	7
04722D 00                  A  3253    	DB	0
04722E 823C04              A  3254    	DW24	_indirect_mmn_match
047231 0800                A  3255    	DW	8
047233 00                  A  3256    	DB	0
047234 B63C04              A  3257    	DW24	_n_match
047237 0900                A  3258    	DW	9
047239 00                  A  3259    	DB	0
04723A EA3C04              A  3260    	DW24	_a_match
04723D 0A00                A  3261    	DW	10
04723F 00                  A  3262    	DB	0
047240 0C3D04              A  3263    	DW24	_hl_match
047243 0B00                A  3264    	DW	11
047245 00                  A  3265    	DB	0
047246 463D04              A  3266    	DW24	_indirect_hl_match
047249 0C00                A  3267    	DW	12
04724B 00                  A  3268    	DB	0
04724C 803D04              A  3269    	DW24	_rr_match
04724F 0D00                A  3270    	DW	13
047251 00                  A  3271    	DB	0
047252 D53D04              A  3272    	DW24	_indirect_rr_match
047255 0E00                A  3273    	DW	14
047257 00                  A  3274    	DB	0
047258 2A3E04              A  3275    	DW24	_rxy_match
04725B 0F00                A  3276    	DW	15
04725D 00                  A  3277    	DB	0
04725E 8F3E04              A  3278    	DW24	_sp_match
047261 1000                A  3279    	DW	16
047263 00                  A  3280    	DB	0
047264 C93E04              A  3281    	DW24	_indirect_sp_match
047267 1100                A  3282    	DW	17
047269 00                  A  3283    	DB	0
04726A 033F04              A  3284    	DW24	_r_match
04726D 1200                A  3285    	DW	18
04726F 00                  A  3286    	DB	0
047270 4F3F04              A  3287    	DW24	_reg_r_match
047273 1300                A  3288    	DW	19
047275 00                  A  3289    	DB	0
047276 713F04              A  3290    	DW24	_mb_match
047279 1400                A  3291    	DW	20
04727B 00                  A  3292    	DB	0
04727C 933F04              A  3293    	DW24	_i_match
04727F 1500                A  3294    	DW	21
047281 00                  A  3295    	DB	0
047282 B53F04              A  3296    	DW24	_b_match
047285 1600                A  3297    	DW	22
047287 00                  A  3298    	DB	0
047288 E93F04              A  3299    	DW24	_af_match
04728B 1700                A  3300    	DW	23
04728D 00                  A  3301    	DB	0
04728E 0B4004              A  3302    	DW24	_de_match
047291 1800                A  3303    	DW	24
047293 00                  A  3304    	DB	0
047294 2D4004              A  3305    	DW24	_nselect_match
047297 1900                A  3306    	DW	25
047299 00                  A  3307    	DB	0
04729A 614004              A  3308    	DW24	_indirect_n_match
04729D 1A00                A  3309    	DW	26
04729F 00                  A  3310    	DB	0
0472A0 954004              A  3311    	DW24	_indirect_bc_match
0472A3 1B00                A  3312    	DW	27
0472A5 00                  A  3313    	DB	0
0472A6 CF4004              A  3314    	DW24	_indirect_c_match
0472A9 1C00                A  3315    	DW	28
0472AB 00                  A  3316    	DB	0
0472AC 094104              A  3317    	DW24	_indirect_ixy_match
0472AF 1D00                A  3318    	DW	29
0472B1 00                  A  3319    	DB	0
0472B2 5F4104              A  3320    	DW24	_cca_match
0472B5 1E00                A  3321    	DW	30
0472B7 00                  A  3322    	DB	0
0472B8 AC4104              A  3323    	DW24	_indirect_de_match
0472BB 1F00                A  3324    	DW	31
0472BD 00                  A  3325    	DB	0
0472BE E64104              A  3326    	DW24	_ix_match
0472C1 2000                A  3327    	DW	32
0472C3 00                  A  3328    	DB	0
0472C4 204204              A  3329    	DW24	_iy_match
0472C7 2100                A  3330    	DW	33
0472C9 00                  A  3331    	DB	0
0472CA 5A4204              A  3332    	DW24	_ixd_match
0472CD 2200                A  3333    	DW	34
0472CF 00                  A  3334    	DB	0
0472D0 944204              A  3335    	DW24	_iyd_match
0472D3 2300                A  3336    	DW	35
0472D5 00                  A  3337    	DB	0
0472D6 CE4204              A  3338    	DW24	_indirect_ixd_match
0472D9 2400                A  3339    	DW	36
0472DB 00                  A  3340    	DB	0
0472DC 084304              A  3341    	DW24	_indirect_iyd_match
0472DF 2500                A  3342    	DW	37
0472E1 00                  A  3343    	DB	0
0472E2 424304              A  3344    	DW24	_raeonly_match
                           A  3345    .DEFINE "permittype_matchlist"
                           A  3346    .ALIAS "_permittype_matchlist"
                           A  3347    .CLASS 69
                           A  3348    .VALUE _permittype_matchlist
                           A  3349    .DIM 38
                           A  3350    .TAG "NONAME7"
                           A  3351    .TYPE 104
                           A  3352    .ENDEF
0472E5                     A  3353    _operands_adc:
0472E5 0900                A  3354    	DW	9
0472E7 00                  A  3355    	DB	0
0472E8 0B00                A  3356    	DW	11
0472EA 00                  A  3357    	DB	0
0472EB 00                  A  3358    	DB	0
0472EC 0000                A  3359    	DW	0
0472EE 00                  A  3360    	DB	0
0472EF 0000                A  3361    	DW	0
0472F1 00                  A  3362    	DB	0
0472F2 00                  A  3363    	DB	0
0472F3 8E                  A  3364    	DB	142
0472F4 06                  A  3365    	DB	6
0472F5 0900                A  3366    	DW	9
0472F7 00                  A  3367    	DB	0
0472F8 0200                A  3368    	DW	2
0472FA 00                  A  3369    	DB	0
0472FB 01                  A  3370    	DB	1
0472FC 0000                A  3371    	DW	0
0472FE 00                  A  3372    	DB	0
0472FF 0800                A  3373    	DW	8
047301 00                  A  3374    	DB	0
047302 00                  A  3375    	DB	0
047303 8C                  A  3376    	DB	140
047304 00                  A  3377    	DB	0
047305 0900                A  3378    	DW	9
047307 00                  A  3379    	DB	0
047308 0500                A  3380    	DW	5
04730A 00                  A  3381    	DB	0
04730B 01                  A  3382    	DB	1
04730C 0000                A  3383    	DW	0
04730E 00                  A  3384    	DB	0
04730F 0000                A  3385    	DW	0
047311 00                  A  3386    	DB	0
047312 00                  A  3387    	DB	0
047313 8E                  A  3388    	DB	142
047314 06                  A  3389    	DB	6
047315 0900                A  3390    	DW	9
047317 00                  A  3391    	DB	0
047318 0800                A  3392    	DW	8
04731A 00                  A  3393    	DB	0
04731B 00                  A  3394    	DB	0
04731C 0000                A  3395    	DW	0
04731E 00                  A  3396    	DB	0
04731F 0000                A  3397    	DW	0
047321 00                  A  3398    	DB	0
047322 00                  A  3399    	DB	0
047323 CE                  A  3400    	DB	206
047324 00                  A  3401    	DB	0
047325 0900                A  3402    	DW	9
047327 00                  A  3403    	DB	0
047328 1100                A  3404    	DW	17
04732A 00                  A  3405    	DB	0
04732B 00                  A  3406    	DB	0
04732C 0000                A  3407    	DW	0
04732E 00                  A  3408    	DB	0
04732F 0300                A  3409    	DW	3
047331 00                  A  3410    	DB	0
047332 00                  A  3411    	DB	0
047333 88                  A  3412    	DB	136
047334 00                  A  3413    	DB	0
047335 0A00                A  3414    	DW	10
047337 00                  A  3415    	DB	0
047338 0C00                A  3416    	DW	12
04733A 00                  A  3417    	DB	0
04733B 00                  A  3418    	DB	0
04733C 0000                A  3419    	DW	0
04733E 00                  A  3420    	DB	0
04733F 0400                A  3421    	DW	4
047341 00                  A  3422    	DB	0
047342 ED                  A  3423    	DB	237
047343 4A                  A  3424    	DB	74
047344 06                  A  3425    	DB	6
047345 0A00                A  3426    	DW	10
047347 00                  A  3427    	DB	0
047348 0F00                A  3428    	DW	15
04734A 00                  A  3429    	DB	0
04734B 00                  A  3430    	DB	0
04734C 0000                A  3431    	DW	0
04734E 00                  A  3432    	DB	0
04734F 0000                A  3433    	DW	0
047351 00                  A  3434    	DB	0
047352 ED                  A  3435    	DB	237
047353 7A                  A  3436    	DB	122
047354 06                  A  3437    	DB	6
                           A  3438    .DEFINE "operands_adc"
                           A  3439    .ALIAS "_operands_adc"
                           A  3440    .CLASS 69
                           A  3441    .VALUE _operands_adc
                           A  3442    .DIM 7
                           A  3443    .TAG "NONAME5"
                           A  3444    .TYPE 104
                           A  3445    .ENDEF
047355                     A  3446    _operands_add:
047355 0900                A  3447    	DW	9
047357 00                  A  3448    	DB	0
047358 0B00                A  3449    	DW	11
04735A 00                  A  3450    	DB	0
04735B 00                  A  3451    	DB	0
04735C 0000                A  3452    	DW	0
04735E 00                  A  3453    	DB	0
04735F 0000                A  3454    	DW	0
047361 00                  A  3455    	DB	0
047362 00                  A  3456    	DB	0
047363 86                  A  3457    	DB	134
047364 06                  A  3458    	DB	6
047365 0900                A  3459    	DW	9
047367 00                  A  3460    	DB	0
047368 0200                A  3461    	DW	2
04736A 00                  A  3462    	DB	0
04736B 01                  A  3463    	DB	1
04736C 0000                A  3464    	DW	0
04736E 00                  A  3465    	DB	0
04736F 0800                A  3466    	DW	8
047371 00                  A  3467    	DB	0
047372 00                  A  3468    	DB	0
047373 84                  A  3469    	DB	132
047374 00                  A  3470    	DB	0
047375 0900                A  3471    	DW	9
047377 00                  A  3472    	DB	0
047378 0500                A  3473    	DW	5
04737A 00                  A  3474    	DB	0
04737B 01                  A  3475    	DB	1
04737C 0000                A  3476    	DW	0
04737E 00                  A  3477    	DB	0
04737F 0000                A  3478    	DW	0
047381 00                  A  3479    	DB	0
047382 00                  A  3480    	DB	0
047383 86                  A  3481    	DB	134
047384 06                  A  3482    	DB	6
047385 0900                A  3483    	DW	9
047387 00                  A  3484    	DB	0
047388 0800                A  3485    	DW	8
04738A 00                  A  3486    	DB	0
04738B 00                  A  3487    	DB	0
04738C 0000                A  3488    	DW	0
04738E 00                  A  3489    	DB	0
04738F 0000                A  3490    	DW	0
047391 00                  A  3491    	DB	0
047392 00                  A  3492    	DB	0
047393 C6                  A  3493    	DB	198
047394 00                  A  3494    	DB	0
047395 0900                A  3495    	DW	9
047397 00                  A  3496    	DB	0
047398 1100                A  3497    	DW	17
04739A 00                  A  3498    	DB	0
04739B 00                  A  3499    	DB	0
04739C 0000                A  3500    	DW	0
04739E 00                  A  3501    	DB	0
04739F 0300                A  3502    	DW	3
0473A1 00                  A  3503    	DB	0
0473A2 00                  A  3504    	DB	0
0473A3 80                  A  3505    	DB	128
0473A4 00                  A  3506    	DB	0
0473A5 0A00                A  3507    	DW	10
0473A7 00                  A  3508    	DB	0
0473A8 0C00                A  3509    	DW	12
0473AA 00                  A  3510    	DB	0
0473AB 00                  A  3511    	DB	0
0473AC 0000                A  3512    	DW	0
0473AE 00                  A  3513    	DB	0
0473AF 0400                A  3514    	DW	4
0473B1 00                  A  3515    	DB	0
0473B2 00                  A  3516    	DB	0
0473B3 09                  A  3517    	DB	9
0473B4 06                  A  3518    	DB	6
0473B5 0A00                A  3519    	DW	10
0473B7 00                  A  3520    	DB	0
0473B8 0F00                A  3521    	DW	15
0473BA 00                  A  3522    	DB	0
0473BB 00                  A  3523    	DB	0
0473BC 0000                A  3524    	DW	0
0473BE 00                  A  3525    	DB	0
0473BF 0000                A  3526    	DW	0
0473C1 00                  A  3527    	DB	0
0473C2 00                  A  3528    	DB	0
0473C3 39                  A  3529    	DB	57
0473C4 06                  A  3530    	DB	6
0473C5 0300                A  3531    	DW	3
0473C7 00                  A  3532    	DB	0
0473C8 0E00                A  3533    	DW	14
0473CA 00                  A  3534    	DB	0
0473CB 01                  A  3535    	DB	1
0473CC 0000                A  3536    	DW	0
0473CE 00                  A  3537    	DB	0
0473CF 0400                A  3538    	DW	4
0473D1 00                  A  3539    	DB	0
0473D2 00                  A  3540    	DB	0
0473D3 09                  A  3541    	DB	9
0473D4 06                  A  3542    	DB	6
0473D5 0300                A  3543    	DW	3
0473D7 00                  A  3544    	DB	0
0473D8 0F00                A  3545    	DW	15
0473DA 00                  A  3546    	DB	0
0473DB 01                  A  3547    	DB	1
0473DC 0000                A  3548    	DW	0
0473DE 00                  A  3549    	DB	0
0473DF 0000                A  3550    	DW	0
0473E1 00                  A  3551    	DB	0
0473E2 00                  A  3552    	DB	0
0473E3 39                  A  3553    	DB	57
0473E4 06                  A  3554    	DB	6
                           A  3555    .DEFINE "operands_add"
                           A  3556    .ALIAS "_operands_add"
                           A  3557    .CLASS 69
                           A  3558    .VALUE _operands_add
                           A  3559    .DIM 9
                           A  3560    .TAG "NONAME5"
                           A  3561    .TYPE 104
                           A  3562    .ENDEF
0473E5                     A  3563    _operands_and:
0473E5 0900                A  3564    	DW	9
0473E7 00                  A  3565    	DB	0
0473E8 0B00                A  3566    	DW	11
0473EA 00                  A  3567    	DB	0
0473EB 00                  A  3568    	DB	0
0473EC 0000                A  3569    	DW	0
0473EE 00                  A  3570    	DB	0
0473EF 0000                A  3571    	DW	0
0473F1 00                  A  3572    	DB	0
0473F2 00                  A  3573    	DB	0
0473F3 A6                  A  3574    	DB	166
0473F4 06                  A  3575    	DB	6
0473F5 0900                A  3576    	DW	9
0473F7 00                  A  3577    	DB	0
0473F8 0200                A  3578    	DW	2
0473FA 00                  A  3579    	DB	0
0473FB 01                  A  3580    	DB	1
0473FC 0000                A  3581    	DW	0
0473FE 00                  A  3582    	DB	0
0473FF 0800                A  3583    	DW	8
047401 00                  A  3584    	DB	0
047402 00                  A  3585    	DB	0
047403 A4                  A  3586    	DB	164
047404 00                  A  3587    	DB	0
047405 0900                A  3588    	DW	9
047407 00                  A  3589    	DB	0
047408 0500                A  3590    	DW	5
04740A 00                  A  3591    	DB	0
04740B 01                  A  3592    	DB	1
04740C 0000                A  3593    	DW	0
04740E 00                  A  3594    	DB	0
04740F 0000                A  3595    	DW	0
047411 00                  A  3596    	DB	0
047412 00                  A  3597    	DB	0
047413 A6                  A  3598    	DB	166
047414 06                  A  3599    	DB	6
047415 0900                A  3600    	DW	9
047417 00                  A  3601    	DB	0
047418 0800                A  3602    	DW	8
04741A 00                  A  3603    	DB	0
04741B 00                  A  3604    	DB	0
04741C 0000                A  3605    	DW	0
04741E 00                  A  3606    	DB	0
04741F 0000                A  3607    	DW	0
047421 00                  A  3608    	DB	0
047422 00                  A  3609    	DB	0
047423 E6                  A  3610    	DB	230
047424 00                  A  3611    	DB	0
047425 0900                A  3612    	DW	9
047427 00                  A  3613    	DB	0
047428 1100                A  3614    	DW	17
04742A 00                  A  3615    	DB	0
04742B 00                  A  3616    	DB	0
04742C 0000                A  3617    	DW	0
04742E 00                  A  3618    	DB	0
04742F 0300                A  3619    	DW	3
047431 00                  A  3620    	DB	0
047432 00                  A  3621    	DB	0
047433 A0                  A  3622    	DB	160
047434 00                  A  3623    	DB	0
047435 0B00                A  3624    	DW	11
047437 00                  A  3625    	DB	0
047438 0000                A  3626    	DW	0
04743A 00                  A  3627    	DB	0
04743B 00                  A  3628    	DB	0
04743C 0000                A  3629    	DW	0
04743E 00                  A  3630    	DB	0
04743F 0000                A  3631    	DW	0
047441 00                  A  3632    	DB	0
047442 00                  A  3633    	DB	0
047443 A6                  A  3634    	DB	166
047444 06                  A  3635    	DB	6
047445 0200                A  3636    	DW	2
047447 00                  A  3637    	DB	0
047448 0000                A  3638    	DW	0
04744A 00                  A  3639    	DB	0
04744B 01                  A  3640    	DB	1
04744C 0800                A  3641    	DW	8
04744E 00                  A  3642    	DB	0
04744F 0000                A  3643    	DW	0
047451 00                  A  3644    	DB	0
047452 00                  A  3645    	DB	0
047453 A4                  A  3646    	DB	164
047454 00                  A  3647    	DB	0
047455 0500                A  3648    	DW	5
047457 00                  A  3649    	DB	0
047458 0000                A  3650    	DW	0
04745A 00                  A  3651    	DB	0
04745B 01                  A  3652    	DB	1
04745C 0000                A  3653    	DW	0
04745E 00                  A  3654    	DB	0
04745F 0000                A  3655    	DW	0
047461 00                  A  3656    	DB	0
047462 00                  A  3657    	DB	0
047463 A6                  A  3658    	DB	166
047464 06                  A  3659    	DB	6
047465 0800                A  3660    	DW	8
047467 00                  A  3661    	DB	0
047468 0000                A  3662    	DW	0
04746A 00                  A  3663    	DB	0
04746B 00                  A  3664    	DB	0
04746C 0000                A  3665    	DW	0
04746E 00                  A  3666    	DB	0
04746F 0000                A  3667    	DW	0
047471 00                  A  3668    	DB	0
047472 00                  A  3669    	DB	0
047473 E6                  A  3670    	DB	230
047474 00                  A  3671    	DB	0
047475 1100                A  3672    	DW	17
047477 00                  A  3673    	DB	0
047478 0000                A  3674    	DW	0
04747A 00                  A  3675    	DB	0
04747B 00                  A  3676    	DB	0
04747C 0300                A  3677    	DW	3
04747E 00                  A  3678    	DB	0
04747F 0000                A  3679    	DW	0
047481 00                  A  3680    	DB	0
047482 00                  A  3681    	DB	0
047483 A0                  A  3682    	DB	160
047484 00                  A  3683    	DB	0
                           A  3684    .DEFINE "operands_and"
                           A  3685    .ALIAS "_operands_and"
                           A  3686    .CLASS 69
                           A  3687    .VALUE _operands_and
                           A  3688    .DIM 10
                           A  3689    .TAG "NONAME5"
                           A  3690    .TYPE 104
                           A  3691    .ENDEF
047485                     A  3692    _operands_bit:
047485 1500                A  3693    	DW	21
047487 00                  A  3694    	DB	0
047488 0B00                A  3695    	DW	11
04748A 00                  A  3696    	DB	0
04748B 00                  A  3697    	DB	0
04748C 0200                A  3698    	DW	2
04748E 00                  A  3699    	DB	0
04748F 0000                A  3700    	DW	0
047491 00                  A  3701    	DB	0
047492 CB                  A  3702    	DB	203
047493 46                  A  3703    	DB	70
047494 06                  A  3704    	DB	6
047495 1500                A  3705    	DW	21
047497 00                  A  3706    	DB	0
047498 0500                A  3707    	DW	5
04749A 00                  A  3708    	DB	0
04749B 01                  A  3709    	DB	1
04749C 0200                A  3710    	DW	2
04749E 00                  A  3711    	DB	0
04749F 0000                A  3712    	DW	0
0474A1 00                  A  3713    	DB	0
0474A2 CB                  A  3714    	DB	203
0474A3 46                  A  3715    	DB	70
0474A4 06                  A  3716    	DB	6
0474A5 1500                A  3717    	DW	21
0474A7 00                  A  3718    	DB	0
0474A8 1100                A  3719    	DW	17
0474AA 00                  A  3720    	DB	0
0474AB 00                  A  3721    	DB	0
0474AC 0200                A  3722    	DW	2
0474AE 00                  A  3723    	DB	0
0474AF 0300                A  3724    	DW	3
0474B1 00                  A  3725    	DB	0
0474B2 CB                  A  3726    	DB	203
0474B3 40                  A  3727    	DB	64
0474B4 00                  A  3728    	DB	0
                           A  3729    .DEFINE "operands_bit"
                           A  3730    .ALIAS "_operands_bit"
                           A  3731    .CLASS 69
                           A  3732    .VALUE _operands_bit
                           A  3733    .DIM 3
                           A  3734    .TAG "NONAME5"
                           A  3735    .TYPE 104
                           A  3736    .ENDEF
0474B5                     A  3737    _operands_call:
0474B5 0100                A  3738    	DW	1
0474B7 00                  A  3739    	DB	0
0474B8 0600                A  3740    	DW	6
0474BA 00                  A  3741    	DB	0
0474BB 00                  A  3742    	DB	0
0474BC 0700                A  3743    	DW	7
0474BE 00                  A  3744    	DB	0
0474BF 0000                A  3745    	DW	0
0474C1 00                  A  3746    	DB	0
0474C2 00                  A  3747    	DB	0
0474C3 C4                  A  3748    	DB	196
0474C4 FF                  A  3749    	DB	255
0474C5 0600                A  3750    	DW	6
0474C7 00                  A  3751    	DB	0
0474C8 0000                A  3752    	DW	0
0474CA 00                  A  3753    	DB	0
0474CB 00                  A  3754    	DB	0
0474CC 0000                A  3755    	DW	0
0474CE 00                  A  3756    	DB	0
0474CF 0000                A  3757    	DW	0
0474D1 00                  A  3758    	DB	0
0474D2 00                  A  3759    	DB	0
0474D3 CD                  A  3760    	DB	205
0474D4 FF                  A  3761    	DB	255
                           A  3762    .DEFINE "operands_call"
                           A  3763    .ALIAS "_operands_call"
                           A  3764    .CLASS 69
                           A  3765    .VALUE _operands_call
                           A  3766    .DIM 2
                           A  3767    .TAG "NONAME5"
                           A  3768    .TYPE 104
                           A  3769    .ENDEF
0474D5                     A  3770    _operands_ccf:
0474D5 0000                A  3771    	DW	0
0474D7 00                  A  3772    	DB	0
0474D8 0000                A  3773    	DW	0
0474DA 00                  A  3774    	DB	0
0474DB 00                  A  3775    	DB	0
0474DC 0000                A  3776    	DW	0
0474DE 00                  A  3777    	DB	0
0474DF 0000                A  3778    	DW	0
0474E1 00                  A  3779    	DB	0
0474E2 00                  A  3780    	DB	0
0474E3 3F                  A  3781    	DB	63
0474E4 00                  A  3782    	DB	0
                           A  3783    .DEFINE "operands_ccf"
                           A  3784    .ALIAS "_operands_ccf"
                           A  3785    .CLASS 69
                           A  3786    .VALUE _operands_ccf
                           A  3787    .DIM 1
                           A  3788    .TAG "NONAME5"
                           A  3789    .TYPE 104
                           A  3790    .ENDEF
0474E5                     A  3791    _operands_cp:
0474E5 0900                A  3792    	DW	9
0474E7 00                  A  3793    	DB	0
0474E8 0B00                A  3794    	DW	11
0474EA 00                  A  3795    	DB	0
0474EB 00                  A  3796    	DB	0
0474EC 0000                A  3797    	DW	0
0474EE 00                  A  3798    	DB	0
0474EF 0000                A  3799    	DW	0
0474F1 00                  A  3800    	DB	0
0474F2 00                  A  3801    	DB	0
0474F3 BE                  A  3802    	DB	190
0474F4 06                  A  3803    	DB	6
0474F5 0900                A  3804    	DW	9
0474F7 00                  A  3805    	DB	0
0474F8 0200                A  3806    	DW	2
0474FA 00                  A  3807    	DB	0
0474FB 01                  A  3808    	DB	1
0474FC 0000                A  3809    	DW	0
0474FE 00                  A  3810    	DB	0
0474FF 0800                A  3811    	DW	8
047501 00                  A  3812    	DB	0
047502 00                  A  3813    	DB	0
047503 BC                  A  3814    	DB	188
047504 00                  A  3815    	DB	0
047505 0900                A  3816    	DW	9
047507 00                  A  3817    	DB	0
047508 0500                A  3818    	DW	5
04750A 00                  A  3819    	DB	0
04750B 01                  A  3820    	DB	1
04750C 0000                A  3821    	DW	0
04750E 00                  A  3822    	DB	0
04750F 0000                A  3823    	DW	0
047511 00                  A  3824    	DB	0
047512 00                  A  3825    	DB	0
047513 BE                  A  3826    	DB	190
047514 06                  A  3827    	DB	6
047515 0900                A  3828    	DW	9
047517 00                  A  3829    	DB	0
047518 0800                A  3830    	DW	8
04751A 00                  A  3831    	DB	0
04751B 00                  A  3832    	DB	0
04751C 0000                A  3833    	DW	0
04751E 00                  A  3834    	DB	0
04751F 0000                A  3835    	DW	0
047521 00                  A  3836    	DB	0
047522 00                  A  3837    	DB	0
047523 FE                  A  3838    	DB	254
047524 00                  A  3839    	DB	0
047525 0900                A  3840    	DW	9
047527 00                  A  3841    	DB	0
047528 1100                A  3842    	DW	17
04752A 00                  A  3843    	DB	0
04752B 00                  A  3844    	DB	0
04752C 0000                A  3845    	DW	0
04752E 00                  A  3846    	DB	0
04752F 0300                A  3847    	DW	3
047531 00                  A  3848    	DB	0
047532 00                  A  3849    	DB	0
047533 B8                  A  3850    	DB	184
047534 00                  A  3851    	DB	0
047535 0B00                A  3852    	DW	11
047537 00                  A  3853    	DB	0
047538 0000                A  3854    	DW	0
04753A 00                  A  3855    	DB	0
04753B 00                  A  3856    	DB	0
04753C 0000                A  3857    	DW	0
04753E 00                  A  3858    	DB	0
04753F 0000                A  3859    	DW	0
047541 00                  A  3860    	DB	0
047542 00                  A  3861    	DB	0
047543 BE                  A  3862    	DB	190
047544 06                  A  3863    	DB	6
047545 0200                A  3864    	DW	2
047547 00                  A  3865    	DB	0
047548 0000                A  3866    	DW	0
04754A 00                  A  3867    	DB	0
04754B 01                  A  3868    	DB	1
04754C 0800                A  3869    	DW	8
04754E 00                  A  3870    	DB	0
04754F 0000                A  3871    	DW	0
047551 00                  A  3872    	DB	0
047552 00                  A  3873    	DB	0
047553 BC                  A  3874    	DB	188
047554 00                  A  3875    	DB	0
047555 0500                A  3876    	DW	5
047557 00                  A  3877    	DB	0
047558 0000                A  3878    	DW	0
04755A 00                  A  3879    	DB	0
04755B 01                  A  3880    	DB	1
04755C 0000                A  3881    	DW	0
04755E 00                  A  3882    	DB	0
04755F 0000                A  3883    	DW	0
047561 00                  A  3884    	DB	0
047562 00                  A  3885    	DB	0
047563 BE                  A  3886    	DB	190
047564 06                  A  3887    	DB	6
047565 0800                A  3888    	DW	8
047567 00                  A  3889    	DB	0
047568 0000                A  3890    	DW	0
04756A 00                  A  3891    	DB	0
04756B 00                  A  3892    	DB	0
04756C 0000                A  3893    	DW	0
04756E 00                  A  3894    	DB	0
04756F 0000                A  3895    	DW	0
047571 00                  A  3896    	DB	0
047572 00                  A  3897    	DB	0
047573 FE                  A  3898    	DB	254
047574 00                  A  3899    	DB	0
047575 1100                A  3900    	DW	17
047577 00                  A  3901    	DB	0
047578 0000                A  3902    	DW	0
04757A 00                  A  3903    	DB	0
04757B 00                  A  3904    	DB	0
04757C 0300                A  3905    	DW	3
04757E 00                  A  3906    	DB	0
04757F 0000                A  3907    	DW	0
047581 00                  A  3908    	DB	0
047582 00                  A  3909    	DB	0
047583 B8                  A  3910    	DB	184
047584 00                  A  3911    	DB	0
                           A  3912    .DEFINE "operands_cp"
                           A  3913    .ALIAS "_operands_cp"
                           A  3914    .CLASS 69
                           A  3915    .VALUE _operands_cp
                           A  3916    .DIM 10
                           A  3917    .TAG "NONAME5"
                           A  3918    .TYPE 104
                           A  3919    .ENDEF
047585                     A  3920    _operands_cpd:
047585 0000                A  3921    	DW	0
047587 00                  A  3922    	DB	0
047588 0000                A  3923    	DW	0
04758A 00                  A  3924    	DB	0
04758B 00                  A  3925    	DB	0
04758C 0000                A  3926    	DW	0
04758E 00                  A  3927    	DB	0
04758F 0000                A  3928    	DW	0
047591 00                  A  3929    	DB	0
047592 ED                  A  3930    	DB	237
047593 A9                  A  3931    	DB	169
047594 06                  A  3932    	DB	6
                           A  3933    .DEFINE "operands_cpd"
                           A  3934    .ALIAS "_operands_cpd"
                           A  3935    .CLASS 69
                           A  3936    .VALUE _operands_cpd
                           A  3937    .DIM 1
                           A  3938    .TAG "NONAME5"
                           A  3939    .TYPE 104
                           A  3940    .ENDEF
047595                     A  3941    _operands_cpdr:
047595 0000                A  3942    	DW	0
047597 00                  A  3943    	DB	0
047598 0000                A  3944    	DW	0
04759A 00                  A  3945    	DB	0
04759B 00                  A  3946    	DB	0
04759C 0000                A  3947    	DW	0
04759E 00                  A  3948    	DB	0
04759F 0000                A  3949    	DW	0
0475A1 00                  A  3950    	DB	0
0475A2 ED                  A  3951    	DB	237
0475A3 B9                  A  3952    	DB	185
0475A4 06                  A  3953    	DB	6
                           A  3954    .DEFINE "operands_cpdr"
                           A  3955    .ALIAS "_operands_cpdr"
                           A  3956    .CLASS 69
                           A  3957    .VALUE _operands_cpdr
                           A  3958    .DIM 1
                           A  3959    .TAG "NONAME5"
                           A  3960    .TYPE 104
                           A  3961    .ENDEF
0475A5                     A  3962    _operands_cpi:
0475A5 0000                A  3963    	DW	0
0475A7 00                  A  3964    	DB	0
0475A8 0000                A  3965    	DW	0
0475AA 00                  A  3966    	DB	0
0475AB 00                  A  3967    	DB	0
0475AC 0000                A  3968    	DW	0
0475AE 00                  A  3969    	DB	0
0475AF 0000                A  3970    	DW	0
0475B1 00                  A  3971    	DB	0
0475B2 ED                  A  3972    	DB	237
0475B3 A1                  A  3973    	DB	161
0475B4 06                  A  3974    	DB	6
                           A  3975    .DEFINE "operands_cpi"
                           A  3976    .ALIAS "_operands_cpi"
                           A  3977    .CLASS 69
                           A  3978    .VALUE _operands_cpi
                           A  3979    .DIM 1
                           A  3980    .TAG "NONAME5"
                           A  3981    .TYPE 104
                           A  3982    .ENDEF
0475B5                     A  3983    _operands_cpir:
0475B5 0000                A  3984    	DW	0
0475B7 00                  A  3985    	DB	0
0475B8 0000                A  3986    	DW	0
0475BA 00                  A  3987    	DB	0
0475BB 00                  A  3988    	DB	0
0475BC 0000                A  3989    	DW	0
0475BE 00                  A  3990    	DB	0
0475BF 0000                A  3991    	DW	0
0475C1 00                  A  3992    	DB	0
0475C2 ED                  A  3993    	DB	237
0475C3 B1                  A  3994    	DB	177
0475C4 06                  A  3995    	DB	6
                           A  3996    .DEFINE "operands_cpir"
                           A  3997    .ALIAS "_operands_cpir"
                           A  3998    .CLASS 69
                           A  3999    .VALUE _operands_cpir
                           A  4000    .DIM 1
                           A  4001    .TAG "NONAME5"
                           A  4002    .TYPE 104
                           A  4003    .ENDEF
0475C5                     A  4004    _operands_cpl:
0475C5 0000                A  4005    	DW	0
0475C7 00                  A  4006    	DB	0
0475C8 0000                A  4007    	DW	0
0475CA 00                  A  4008    	DB	0
0475CB 00                  A  4009    	DB	0
0475CC 0000                A  4010    	DW	0
0475CE 00                  A  4011    	DB	0
0475CF 0000                A  4012    	DW	0
0475D1 00                  A  4013    	DB	0
0475D2 00                  A  4014    	DB	0
0475D3 2F                  A  4015    	DB	47
0475D4 00                  A  4016    	DB	0
                           A  4017    .DEFINE "operands_cpl"
                           A  4018    .ALIAS "_operands_cpl"
                           A  4019    .CLASS 69
                           A  4020    .VALUE _operands_cpl
                           A  4021    .DIM 1
                           A  4022    .TAG "NONAME5"
                           A  4023    .TYPE 104
                           A  4024    .ENDEF
0475D5                     A  4025    _operands_daa:
0475D5 0000                A  4026    	DW	0
0475D7 00                  A  4027    	DB	0
0475D8 0000                A  4028    	DW	0
0475DA 00                  A  4029    	DB	0
0475DB 00                  A  4030    	DB	0
0475DC 0000                A  4031    	DW	0
0475DE 00                  A  4032    	DB	0
0475DF 0000                A  4033    	DW	0
0475E1 00                  A  4034    	DB	0
0475E2 00                  A  4035    	DB	0
0475E3 27                  A  4036    	DB	39
0475E4 00                  A  4037    	DB	0
                           A  4038    .DEFINE "operands_daa"
                           A  4039    .ALIAS "_operands_daa"
                           A  4040    .CLASS 69
                           A  4041    .VALUE _operands_daa
                           A  4042    .DIM 1
                           A  4043    .TAG "NONAME5"
                           A  4044    .TYPE 104
                           A  4045    .ENDEF
0475E5                     A  4046    _operands_dec:
0475E5 0B00                A  4047    	DW	11
0475E7 00                  A  4048    	DB	0
0475E8 0000                A  4049    	DW	0
0475EA 00                  A  4050    	DB	0
0475EB 00                  A  4051    	DB	0
0475EC 0000                A  4052    	DW	0
0475EE 00                  A  4053    	DB	0
0475EF 0000                A  4054    	DW	0
0475F1 00                  A  4055    	DB	0
0475F2 00                  A  4056    	DB	0
0475F3 35                  A  4057    	DB	53
0475F4 06                  A  4058    	DB	6
0475F5 0200                A  4059    	DW	2
0475F7 00                  A  4060    	DB	0
0475F8 0000                A  4061    	DW	0
0475FA 00                  A  4062    	DB	0
0475FB 01                  A  4063    	DB	1
0475FC 0900                A  4064    	DW	9
0475FE 00                  A  4065    	DB	0
0475FF 0000                A  4066    	DW	0
047601 00                  A  4067    	DB	0
047602 00                  A  4068    	DB	0
047603 25                  A  4069    	DB	37
047604 00                  A  4070    	DB	0
047605 0300                A  4071    	DW	3
047607 00                  A  4072    	DB	0
047608 0000                A  4073    	DW	0
04760A 00                  A  4074    	DB	0
04760B 01                  A  4075    	DB	1
04760C 0000                A  4076    	DW	0
04760E 00                  A  4077    	DB	0
04760F 0000                A  4078    	DW	0
047611 00                  A  4079    	DB	0
047612 00                  A  4080    	DB	0
047613 2B                  A  4081    	DB	43
047614 06                  A  4082    	DB	6
047615 0500                A  4083    	DW	5
047617 00                  A  4084    	DB	0
047618 0000                A  4085    	DW	0
04761A 00                  A  4086    	DB	0
04761B 01                  A  4087    	DB	1
04761C 0000                A  4088    	DW	0
04761E 00                  A  4089    	DB	0
04761F 0000                A  4090    	DW	0
047621 00                  A  4091    	DB	0
047622 00                  A  4092    	DB	0
047623 35                  A  4093    	DB	53
047624 06                  A  4094    	DB	6
047625 1100                A  4095    	DW	17
047627 00                  A  4096    	DB	0
047628 0000                A  4097    	DW	0
04762A 00                  A  4098    	DB	0
04762B 00                  A  4099    	DB	0
04762C 0200                A  4100    	DW	2
04762E 00                  A  4101    	DB	0
04762F 0000                A  4102    	DW	0
047631 00                  A  4103    	DB	0
047632 00                  A  4104    	DB	0
047633 05                  A  4105    	DB	5
047634 00                  A  4106    	DB	0
047635 0C00                A  4107    	DW	12
047637 00                  A  4108    	DB	0
047638 0000                A  4109    	DW	0
04763A 00                  A  4110    	DB	0
04763B 00                  A  4111    	DB	0
04763C 0400                A  4112    	DW	4
04763E 00                  A  4113    	DB	0
04763F 0000                A  4114    	DW	0
047641 00                  A  4115    	DB	0
047642 00                  A  4116    	DB	0
047643 0B                  A  4117    	DB	11
047644 06                  A  4118    	DB	6
047645 0F00                A  4119    	DW	15
047647 00                  A  4120    	DB	0
047648 0000                A  4121    	DW	0
04764A 00                  A  4122    	DB	0
04764B 00                  A  4123    	DB	0
04764C 0000                A  4124    	DW	0
04764E 00                  A  4125    	DB	0
04764F 0000                A  4126    	DW	0
047651 00                  A  4127    	DB	0
047652 00                  A  4128    	DB	0
047653 3B                  A  4129    	DB	59
047654 06                  A  4130    	DB	6
                           A  4131    .DEFINE "operands_dec"
                           A  4132    .ALIAS "_operands_dec"
                           A  4133    .CLASS 69
                           A  4134    .VALUE _operands_dec
                           A  4135    .DIM 7
                           A  4136    .TAG "NONAME5"
                           A  4137    .TYPE 104
                           A  4138    .ENDEF
047655                     A  4139    _operands_di:
047655 0000                A  4140    	DW	0
047657 00                  A  4141    	DB	0
047658 0000                A  4142    	DW	0
04765A 00                  A  4143    	DB	0
04765B 00                  A  4144    	DB	0
04765C 0000                A  4145    	DW	0
04765E 00                  A  4146    	DB	0
04765F 0000                A  4147    	DW	0
047661 00                  A  4148    	DB	0
047662 00                  A  4149    	DB	0
047663 F3                  A  4150    	DB	243
047664 00                  A  4151    	DB	0
                           A  4152    .DEFINE "operands_di"
                           A  4153    .ALIAS "_operands_di"
                           A  4154    .CLASS 69
                           A  4155    .VALUE _operands_di
                           A  4156    .DIM 1
                           A  4157    .TAG "NONAME5"
                           A  4158    .TYPE 104
                           A  4159    .ENDEF
047665                     A  4160    _operands_djnz:
047665 0800                A  4161    	DW	8
047667 00                  A  4162    	DB	0
047668 0000                A  4163    	DW	0
04766A 00                  A  4164    	DB	0
04766B 00                  A  4165    	DB	0
04766C 0D00                A  4166    	DW	13
04766E 00                  A  4167    	DB	0
04766F 0000                A  4168    	DW	0
047671 00                  A  4169    	DB	0
047672 00                  A  4170    	DB	0
047673 10                  A  4171    	DB	16
047674 00                  A  4172    	DB	0
                           A  4173    .DEFINE "operands_djnz"
                           A  4174    .ALIAS "_operands_djnz"
                           A  4175    .CLASS 69
                           A  4176    .VALUE _operands_djnz
                           A  4177    .DIM 1
                           A  4178    .TAG "NONAME5"
                           A  4179    .TYPE 104
                           A  4180    .ENDEF
047675                     A  4181    _operands_ei:
047675 0000                A  4182    	DW	0
047677 00                  A  4183    	DB	0
047678 0000                A  4184    	DW	0
04767A 00                  A  4185    	DB	0
04767B 00                  A  4186    	DB	0
04767C 0000                A  4187    	DW	0
04767E 00                  A  4188    	DB	0
04767F 0000                A  4189    	DW	0
047681 00                  A  4190    	DB	0
047682 00                  A  4191    	DB	0
047683 FB                  A  4192    	DB	251
047684 00                  A  4193    	DB	0
                           A  4194    .DEFINE "operands_ei"
                           A  4195    .ALIAS "_operands_ei"
                           A  4196    .CLASS 69
                           A  4197    .VALUE _operands_ei
                           A  4198    .DIM 1
                           A  4199    .TAG "NONAME5"
                           A  4200    .TYPE 104
                           A  4201    .ENDEF
047685                     A  4202    _operands_ex:
047685 1600                A  4203    	DW	22
047687 00                  A  4204    	DB	0
047688 1600                A  4205    	DW	22
04768A 00                  A  4206    	DB	0
04768B 00                  A  4207    	DB	0
04768C 0000                A  4208    	DW	0
04768E 00                  A  4209    	DB	0
04768F 0000                A  4210    	DW	0
047691 00                  A  4211    	DB	0
047692 00                  A  4212    	DB	0
047693 08                  A  4213    	DB	8
047694 00                  A  4214    	DB	0
047695 1700                A  4215    	DW	23
047697 00                  A  4216    	DB	0
047698 0A00                A  4217    	DW	10
04769A 00                  A  4218    	DB	0
04769B 00                  A  4219    	DB	0
04769C 0000                A  4220    	DW	0
04769E 00                  A  4221    	DB	0
04769F 0000                A  4222    	DW	0
0476A1 00                  A  4223    	DB	0
0476A2 00                  A  4224    	DB	0
0476A3 EB                  A  4225    	DB	235
0476A4 00                  A  4226    	DB	0
0476A5 1000                A  4227    	DW	16
0476A7 00                  A  4228    	DB	0
0476A8 0A00                A  4229    	DW	10
0476AA 00                  A  4230    	DB	0
0476AB 00                  A  4231    	DB	0
0476AC 0000                A  4232    	DW	0
0476AE 00                  A  4233    	DB	0
0476AF 0000                A  4234    	DW	0
0476B1 00                  A  4235    	DB	0
0476B2 00                  A  4236    	DB	0
0476B3 E3                  A  4237    	DB	227
0476B4 06                  A  4238    	DB	6
0476B5 1000                A  4239    	DW	16
0476B7 00                  A  4240    	DB	0
0476B8 0300                A  4241    	DW	3
0476BA 00                  A  4242    	DB	0
0476BB 01                  A  4243    	DB	1
0476BC 0000                A  4244    	DW	0
0476BE 00                  A  4245    	DB	0
0476BF 0000                A  4246    	DW	0
0476C1 00                  A  4247    	DB	0
0476C2 00                  A  4248    	DB	0
0476C3 E3                  A  4249    	DB	227
0476C4 06                  A  4250    	DB	6
                           A  4251    .DEFINE "operands_ex"
                           A  4252    .ALIAS "_operands_ex"
                           A  4253    .CLASS 69
                           A  4254    .VALUE _operands_ex
                           A  4255    .DIM 4
                           A  4256    .TAG "NONAME5"
                           A  4257    .TYPE 104
                           A  4258    .ENDEF
0476C5                     A  4259    _operands_exx:
0476C5 0000                A  4260    	DW	0
0476C7 00                  A  4261    	DB	0
0476C8 0000                A  4262    	DW	0
0476CA 00                  A  4263    	DB	0
0476CB 00                  A  4264    	DB	0
0476CC 0000                A  4265    	DW	0
0476CE 00                  A  4266    	DB	0
0476CF 0000                A  4267    	DW	0
0476D1 00                  A  4268    	DB	0
0476D2 00                  A  4269    	DB	0
0476D3 D9                  A  4270    	DB	217
0476D4 00                  A  4271    	DB	0
                           A  4272    .DEFINE "operands_exx"
                           A  4273    .ALIAS "_operands_exx"
                           A  4274    .CLASS 69
                           A  4275    .VALUE _operands_exx
                           A  4276    .DIM 1
                           A  4277    .TAG "NONAME5"
                           A  4278    .TYPE 104
                           A  4279    .ENDEF
0476D5                     A  4280    _operands_halt:
0476D5 0000                A  4281    	DW	0
0476D7 00                  A  4282    	DB	0
0476D8 0000                A  4283    	DW	0
0476DA 00                  A  4284    	DB	0
0476DB 00                  A  4285    	DB	0
0476DC 0000                A  4286    	DW	0
0476DE 00                  A  4287    	DB	0
0476DF 0000                A  4288    	DW	0
0476E1 00                  A  4289    	DB	0
0476E2 00                  A  4290    	DB	0
0476E3 76                  A  4291    	DB	118
0476E4 00                  A  4292    	DB	0
                           A  4293    .DEFINE "operands_halt"
                           A  4294    .ALIAS "_operands_halt"
                           A  4295    .CLASS 69
                           A  4296    .VALUE _operands_halt
                           A  4297    .DIM 1
                           A  4298    .TAG "NONAME5"
                           A  4299    .TYPE 104
                           A  4300    .ENDEF
0476E5                     A  4301    _operands_im:
0476E5 1800                A  4302    	DW	24
0476E7 00                  A  4303    	DB	0
0476E8 0000                A  4304    	DW	0
0476EA 00                  A  4305    	DB	0
0476EB 00                  A  4306    	DB	0
0476EC 0A00                A  4307    	DW	10
0476EE 00                  A  4308    	DB	0
0476EF 0000                A  4309    	DW	0
0476F1 00                  A  4310    	DB	0
0476F2 ED                  A  4311    	DB	237
0476F3 46                  A  4312    	DB	70
0476F4 00                  A  4313    	DB	0
                           A  4314    .DEFINE "operands_im"
                           A  4315    .ALIAS "_operands_im"
                           A  4316    .CLASS 69
                           A  4317    .VALUE _operands_im
                           A  4318    .DIM 1
                           A  4319    .TAG "NONAME5"
                           A  4320    .TYPE 104
                           A  4321    .ENDEF
0476F5                     A  4322    _operands_in:
0476F5 0900                A  4323    	DW	9
0476F7 00                  A  4324    	DB	0
0476F8 1900                A  4325    	DW	25
0476FA 00                  A  4326    	DB	0
0476FB 00                  A  4327    	DB	0
0476FC 0000                A  4328    	DW	0
0476FE 00                  A  4329    	DB	0
0476FF 0000                A  4330    	DW	0
047701 00                  A  4331    	DB	0
047702 00                  A  4332    	DB	0
047703 DB                  A  4333    	DB	219
047704 00                  A  4334    	DB	0
047705 1100                A  4335    	DW	17
047707 00                  A  4336    	DB	0
047708 1A00                A  4337    	DW	26
04770A 00                  A  4338    	DB	0
04770B 00                  A  4339    	DB	0
04770C 0200                A  4340    	DW	2
04770E 00                  A  4341    	DB	0
04770F 0000                A  4342    	DW	0
047711 00                  A  4343    	DB	0
047712 ED                  A  4344    	DB	237
047713 40                  A  4345    	DB	64
047714 00                  A  4346    	DB	0
047715 1100                A  4347    	DW	17
047717 00                  A  4348    	DB	0
047718 1B00                A  4349    	DW	27
04771A 00                  A  4350    	DB	0
04771B 00                  A  4351    	DB	0
04771C 0200                A  4352    	DW	2
04771E 00                  A  4353    	DB	0
04771F 0000                A  4354    	DW	0
047721 00                  A  4355    	DB	0
047722 ED                  A  4356    	DB	237
047723 40                  A  4357    	DB	64
047724 00                  A  4358    	DB	0
                           A  4359    .DEFINE "operands_in"
                           A  4360    .ALIAS "_operands_in"
                           A  4361    .CLASS 69
                           A  4362    .VALUE _operands_in
                           A  4363    .DIM 3
                           A  4364    .TAG "NONAME5"
                           A  4365    .TYPE 104
                           A  4366    .ENDEF
047725                     A  4367    _operands_in0:
047725 1100                A  4368    	DW	17
047727 00                  A  4369    	DB	0
047728 1900                A  4370    	DW	25
04772A 00                  A  4371    	DB	0
04772B 00                  A  4372    	DB	0
04772C 0200                A  4373    	DW	2
04772E 00                  A  4374    	DB	0
04772F 0000                A  4375    	DW	0
047731 00                  A  4376    	DB	0
047732 ED                  A  4377    	DB	237
047733 00                  A  4378    	DB	0
047734 00                  A  4379    	DB	0
                           A  4380    .DEFINE "operands_in0"
                           A  4381    .ALIAS "_operands_in0"
                           A  4382    .CLASS 69
                           A  4383    .VALUE _operands_in0
                           A  4384    .DIM 1
                           A  4385    .TAG "NONAME5"
                           A  4386    .TYPE 104
                           A  4387    .ENDEF
047735                     A  4388    _operands_inc:
047735 0B00                A  4389    	DW	11
047737 00                  A  4390    	DB	0
047738 0000                A  4391    	DW	0
04773A 00                  A  4392    	DB	0
04773B 00                  A  4393    	DB	0
04773C 0000                A  4394    	DW	0
04773E 00                  A  4395    	DB	0
04773F 0000                A  4396    	DW	0
047741 00                  A  4397    	DB	0
047742 00                  A  4398    	DB	0
047743 34                  A  4399    	DB	52
047744 06                  A  4400    	DB	6
047745 0200                A  4401    	DW	2
047747 00                  A  4402    	DB	0
047748 0000                A  4403    	DW	0
04774A 00                  A  4404    	DB	0
04774B 01                  A  4405    	DB	1
04774C 0900                A  4406    	DW	9
04774E 00                  A  4407    	DB	0
04774F 0000                A  4408    	DW	0
047751 00                  A  4409    	DB	0
047752 00                  A  4410    	DB	0
047753 24                  A  4411    	DB	36
047754 00                  A  4412    	DB	0
047755 0300                A  4413    	DW	3
047757 00                  A  4414    	DB	0
047758 0000                A  4415    	DW	0
04775A 00                  A  4416    	DB	0
04775B 01                  A  4417    	DB	1
04775C 0000                A  4418    	DW	0
04775E 00                  A  4419    	DB	0
04775F 0000                A  4420    	DW	0
047761 00                  A  4421    	DB	0
047762 00                  A  4422    	DB	0
047763 23                  A  4423    	DB	35
047764 06                  A  4424    	DB	6
047765 0500                A  4425    	DW	5
047767 00                  A  4426    	DB	0
047768 0000                A  4427    	DW	0
04776A 00                  A  4428    	DB	0
04776B 01                  A  4429    	DB	1
04776C 0000                A  4430    	DW	0
04776E 00                  A  4431    	DB	0
04776F 0000                A  4432    	DW	0
047771 00                  A  4433    	DB	0
047772 00                  A  4434    	DB	0
047773 34                  A  4435    	DB	52
047774 06                  A  4436    	DB	6
047775 1100                A  4437    	DW	17
047777 00                  A  4438    	DB	0
047778 0000                A  4439    	DW	0
04777A 00                  A  4440    	DB	0
04777B 00                  A  4441    	DB	0
04777C 0200                A  4442    	DW	2
04777E 00                  A  4443    	DB	0
04777F 0000                A  4444    	DW	0
047781 00                  A  4445    	DB	0
047782 00                  A  4446    	DB	0
047783 04                  A  4447    	DB	4
047784 00                  A  4448    	DB	0
047785 0C00                A  4449    	DW	12
047787 00                  A  4450    	DB	0
047788 0000                A  4451    	DW	0
04778A 00                  A  4452    	DB	0
04778B 00                  A  4453    	DB	0
04778C 0400                A  4454    	DW	4
04778E 00                  A  4455    	DB	0
04778F 0000                A  4456    	DW	0
047791 00                  A  4457    	DB	0
047792 00                  A  4458    	DB	0
047793 03                  A  4459    	DB	3
047794 06                  A  4460    	DB	6
047795 0F00                A  4461    	DW	15
047797 00                  A  4462    	DB	0
047798 0000                A  4463    	DW	0
04779A 00                  A  4464    	DB	0
04779B 00                  A  4465    	DB	0
04779C 0000                A  4466    	DW	0
04779E 00                  A  4467    	DB	0
04779F 0000                A  4468    	DW	0
0477A1 00                  A  4469    	DB	0
0477A2 00                  A  4470    	DB	0
0477A3 33                  A  4471    	DB	51
0477A4 06                  A  4472    	DB	6
                           A  4473    .DEFINE "operands_inc"
                           A  4474    .ALIAS "_operands_inc"
                           A  4475    .CLASS 69
                           A  4476    .VALUE _operands_inc
                           A  4477    .DIM 7
                           A  4478    .TAG "NONAME5"
                           A  4479    .TYPE 104
                           A  4480    .ENDEF
0477A5                     A  4481    _operands_ind:
0477A5 0000                A  4482    	DW	0
0477A7 00                  A  4483    	DB	0
0477A8 0000                A  4484    	DW	0
0477AA 00                  A  4485    	DB	0
0477AB 00                  A  4486    	DB	0
0477AC 0000                A  4487    	DW	0
0477AE 00                  A  4488    	DB	0
0477AF 0000                A  4489    	DW	0
0477B1 00                  A  4490    	DB	0
0477B2 ED                  A  4491    	DB	237
0477B3 AA                  A  4492    	DB	170
0477B4 06                  A  4493    	DB	6
                           A  4494    .DEFINE "operands_ind"
                           A  4495    .ALIAS "_operands_ind"
                           A  4496    .CLASS 69
                           A  4497    .VALUE _operands_ind
                           A  4498    .DIM 1
                           A  4499    .TAG "NONAME5"
                           A  4500    .TYPE 104
                           A  4501    .ENDEF
0477B5                     A  4502    _operands_ind2:
0477B5 0000                A  4503    	DW	0
0477B7 00                  A  4504    	DB	0
0477B8 0000                A  4505    	DW	0
0477BA 00                  A  4506    	DB	0
0477BB 00                  A  4507    	DB	0
0477BC 0000                A  4508    	DW	0
0477BE 00                  A  4509    	DB	0
0477BF 0000                A  4510    	DW	0
0477C1 00                  A  4511    	DB	0
0477C2 ED                  A  4512    	DB	237
0477C3 8C                  A  4513    	DB	140
0477C4 06                  A  4514    	DB	6
                           A  4515    .DEFINE "operands_ind2"
                           A  4516    .ALIAS "_operands_ind2"
                           A  4517    .CLASS 69
                           A  4518    .VALUE _operands_ind2
                           A  4519    .DIM 1
                           A  4520    .TAG "NONAME5"
                           A  4521    .TYPE 104
                           A  4522    .ENDEF
0477C5                     A  4523    _operands_ind2r:
0477C5 0000                A  4524    	DW	0
0477C7 00                  A  4525    	DB	0
0477C8 0000                A  4526    	DW	0
0477CA 00                  A  4527    	DB	0
0477CB 00                  A  4528    	DB	0
0477CC 0000                A  4529    	DW	0
0477CE 00                  A  4530    	DB	0
0477CF 0000                A  4531    	DW	0
0477D1 00                  A  4532    	DB	0
0477D2 ED                  A  4533    	DB	237
0477D3 9C                  A  4534    	DB	156
0477D4 06                  A  4535    	DB	6
                           A  4536    .DEFINE "operands_ind2r"
                           A  4537    .ALIAS "_operands_ind2r"
                           A  4538    .CLASS 69
                           A  4539    .VALUE _operands_ind2r
                           A  4540    .DIM 1
                           A  4541    .TAG "NONAME5"
                           A  4542    .TYPE 104
                           A  4543    .ENDEF
0477D5                     A  4544    _operands_indm:
0477D5 0000                A  4545    	DW	0
0477D7 00                  A  4546    	DB	0
0477D8 0000                A  4547    	DW	0
0477DA 00                  A  4548    	DB	0
0477DB 00                  A  4549    	DB	0
0477DC 0000                A  4550    	DW	0
0477DE 00                  A  4551    	DB	0
0477DF 0000                A  4552    	DW	0
0477E1 00                  A  4553    	DB	0
0477E2 ED                  A  4554    	DB	237
0477E3 8A                  A  4555    	DB	138
0477E4 06                  A  4556    	DB	6
                           A  4557    .DEFINE "operands_indm"
                           A  4558    .ALIAS "_operands_indm"
                           A  4559    .CLASS 69
                           A  4560    .VALUE _operands_indm
                           A  4561    .DIM 1
                           A  4562    .TAG "NONAME5"
                           A  4563    .TYPE 104
                           A  4564    .ENDEF
0477E5                     A  4565    _operands_indmr:
0477E5 0000                A  4566    	DW	0
0477E7 00                  A  4567    	DB	0
0477E8 0000                A  4568    	DW	0
0477EA 00                  A  4569    	DB	0
0477EB 00                  A  4570    	DB	0
0477EC 0000                A  4571    	DW	0
0477EE 00                  A  4572    	DB	0
0477EF 0000                A  4573    	DW	0
0477F1 00                  A  4574    	DB	0
0477F2 ED                  A  4575    	DB	237
0477F3 9A                  A  4576    	DB	154
0477F4 06                  A  4577    	DB	6
                           A  4578    .DEFINE "operands_indmr"
                           A  4579    .ALIAS "_operands_indmr"
                           A  4580    .CLASS 69
                           A  4581    .VALUE _operands_indmr
                           A  4582    .DIM 1
                           A  4583    .TAG "NONAME5"
                           A  4584    .TYPE 104
                           A  4585    .ENDEF
0477F5                     A  4586    _operands_indr:
0477F5 0000                A  4587    	DW	0
0477F7 00                  A  4588    	DB	0
0477F8 0000                A  4589    	DW	0
0477FA 00                  A  4590    	DB	0
0477FB 00                  A  4591    	DB	0
0477FC 0000                A  4592    	DW	0
0477FE 00                  A  4593    	DB	0
0477FF 0000                A  4594    	DW	0
047801 00                  A  4595    	DB	0
047802 ED                  A  4596    	DB	237
047803 BA                  A  4597    	DB	186
047804 06                  A  4598    	DB	6
                           A  4599    .DEFINE "operands_indr"
                           A  4600    .ALIAS "_operands_indr"
                           A  4601    .CLASS 69
                           A  4602    .VALUE _operands_indr
                           A  4603    .DIM 1
                           A  4604    .TAG "NONAME5"
                           A  4605    .TYPE 104
                           A  4606    .ENDEF
047805                     A  4607    _operands_indrx:
047805 0000                A  4608    	DW	0
047807 00                  A  4609    	DB	0
047808 0000                A  4610    	DW	0
04780A 00                  A  4611    	DB	0
04780B 00                  A  4612    	DB	0
04780C 0000                A  4613    	DW	0
04780E 00                  A  4614    	DB	0
04780F 0000                A  4615    	DW	0
047811 00                  A  4616    	DB	0
047812 ED                  A  4617    	DB	237
047813 CA                  A  4618    	DB	202
047814 06                  A  4619    	DB	6
                           A  4620    .DEFINE "operands_indrx"
                           A  4621    .ALIAS "_operands_indrx"
                           A  4622    .CLASS 69
                           A  4623    .VALUE _operands_indrx
                           A  4624    .DIM 1
                           A  4625    .TAG "NONAME5"
                           A  4626    .TYPE 104
                           A  4627    .ENDEF
047815                     A  4628    _operands_ini:
047815 0000                A  4629    	DW	0
047817 00                  A  4630    	DB	0
047818 0000                A  4631    	DW	0
04781A 00                  A  4632    	DB	0
04781B 00                  A  4633    	DB	0
04781C 0000                A  4634    	DW	0
04781E 00                  A  4635    	DB	0
04781F 0000                A  4636    	DW	0
047821 00                  A  4637    	DB	0
047822 ED                  A  4638    	DB	237
047823 A2                  A  4639    	DB	162
047824 06                  A  4640    	DB	6
                           A  4641    .DEFINE "operands_ini"
                           A  4642    .ALIAS "_operands_ini"
                           A  4643    .CLASS 69
                           A  4644    .VALUE _operands_ini
                           A  4645    .DIM 1
                           A  4646    .TAG "NONAME5"
                           A  4647    .TYPE 104
                           A  4648    .ENDEF
047825                     A  4649    _operands_ini2:
047825 0000                A  4650    	DW	0
047827 00                  A  4651    	DB	0
047828 0000                A  4652    	DW	0
04782A 00                  A  4653    	DB	0
04782B 00                  A  4654    	DB	0
04782C 0000                A  4655    	DW	0
04782E 00                  A  4656    	DB	0
04782F 0000                A  4657    	DW	0
047831 00                  A  4658    	DB	0
047832 ED                  A  4659    	DB	237
047833 84                  A  4660    	DB	132
047834 06                  A  4661    	DB	6
                           A  4662    .DEFINE "operands_ini2"
                           A  4663    .ALIAS "_operands_ini2"
                           A  4664    .CLASS 69
                           A  4665    .VALUE _operands_ini2
                           A  4666    .DIM 1
                           A  4667    .TAG "NONAME5"
                           A  4668    .TYPE 104
                           A  4669    .ENDEF
047835                     A  4670    _operands_ini2r:
047835 0000                A  4671    	DW	0
047837 00                  A  4672    	DB	0
047838 0000                A  4673    	DW	0
04783A 00                  A  4674    	DB	0
04783B 00                  A  4675    	DB	0
04783C 0000                A  4676    	DW	0
04783E 00                  A  4677    	DB	0
04783F 0000                A  4678    	DW	0
047841 00                  A  4679    	DB	0
047842 ED                  A  4680    	DB	237
047843 94                  A  4681    	DB	148
047844 06                  A  4682    	DB	6
                           A  4683    .DEFINE "operands_ini2r"
                           A  4684    .ALIAS "_operands_ini2r"
                           A  4685    .CLASS 69
                           A  4686    .VALUE _operands_ini2r
                           A  4687    .DIM 1
                           A  4688    .TAG "NONAME5"
                           A  4689    .TYPE 104
                           A  4690    .ENDEF
047845                     A  4691    _operands_inim:
047845 0000                A  4692    	DW	0
047847 00                  A  4693    	DB	0
047848 0000                A  4694    	DW	0
04784A 00                  A  4695    	DB	0
04784B 00                  A  4696    	DB	0
04784C 0000                A  4697    	DW	0
04784E 00                  A  4698    	DB	0
04784F 0000                A  4699    	DW	0
047851 00                  A  4700    	DB	0
047852 ED                  A  4701    	DB	237
047853 82                  A  4702    	DB	130
047854 06                  A  4703    	DB	6
                           A  4704    .DEFINE "operands_inim"
                           A  4705    .ALIAS "_operands_inim"
                           A  4706    .CLASS 69
                           A  4707    .VALUE _operands_inim
                           A  4708    .DIM 1
                           A  4709    .TAG "NONAME5"
                           A  4710    .TYPE 104
                           A  4711    .ENDEF
047855                     A  4712    _operands_inimr:
047855 0000                A  4713    	DW	0
047857 00                  A  4714    	DB	0
047858 0000                A  4715    	DW	0
04785A 00                  A  4716    	DB	0
04785B 00                  A  4717    	DB	0
04785C 0000                A  4718    	DW	0
04785E 00                  A  4719    	DB	0
04785F 0000                A  4720    	DW	0
047861 00                  A  4721    	DB	0
047862 ED                  A  4722    	DB	237
047863 92                  A  4723    	DB	146
047864 06                  A  4724    	DB	6
                           A  4725    .DEFINE "operands_inimr"
                           A  4726    .ALIAS "_operands_inimr"
                           A  4727    .CLASS 69
                           A  4728    .VALUE _operands_inimr
                           A  4729    .DIM 1
                           A  4730    .TAG "NONAME5"
                           A  4731    .TYPE 104
                           A  4732    .ENDEF
047865                     A  4733    _operands_inir:
047865 0000                A  4734    	DW	0
047867 00                  A  4735    	DB	0
047868 0000                A  4736    	DW	0
04786A 00                  A  4737    	DB	0
04786B 00                  A  4738    	DB	0
04786C 0000                A  4739    	DW	0
04786E 00                  A  4740    	DB	0
04786F 0000                A  4741    	DW	0
047871 00                  A  4742    	DB	0
047872 ED                  A  4743    	DB	237
047873 B2                  A  4744    	DB	178
047874 06                  A  4745    	DB	6
                           A  4746    .DEFINE "operands_inir"
                           A  4747    .ALIAS "_operands_inir"
                           A  4748    .CLASS 69
                           A  4749    .VALUE _operands_inir
                           A  4750    .DIM 1
                           A  4751    .TAG "NONAME5"
                           A  4752    .TYPE 104
                           A  4753    .ENDEF
047875                     A  4754    _operands_inirx:
047875 0000                A  4755    	DW	0
047877 00                  A  4756    	DB	0
047878 0000                A  4757    	DW	0
04787A 00                  A  4758    	DB	0
04787B 00                  A  4759    	DB	0
04787C 0000                A  4760    	DW	0
04787E 00                  A  4761    	DB	0
04787F 0000                A  4762    	DW	0
047881 00                  A  4763    	DB	0
047882 ED                  A  4764    	DB	237
047883 C2                  A  4765    	DB	194
047884 06                  A  4766    	DB	6
                           A  4767    .DEFINE "operands_inirx"
                           A  4768    .ALIAS "_operands_inirx"
                           A  4769    .CLASS 69
                           A  4770    .VALUE _operands_inirx
                           A  4771    .DIM 1
                           A  4772    .TAG "NONAME5"
                           A  4773    .TYPE 104
                           A  4774    .ENDEF
047885                     A  4775    _operands_jp:
047885 0100                A  4776    	DW	1
047887 00                  A  4777    	DB	0
047888 0600                A  4778    	DW	6
04788A 00                  A  4779    	DB	0
04788B 00                  A  4780    	DB	0
04788C 0700                A  4781    	DW	7
04788E 00                  A  4782    	DB	0
04788F 0000                A  4783    	DW	0
047891 00                  A  4784    	DB	0
047892 00                  A  4785    	DB	0
047893 C2                  A  4786    	DB	194
047894 09                  A  4787    	DB	9
047895 0B00                A  4788    	DW	11
047897 00                  A  4789    	DB	0
047898 0000                A  4790    	DW	0
04789A 00                  A  4791    	DB	0
04789B 00                  A  4792    	DB	0
04789C 0000                A  4793    	DW	0
04789E 00                  A  4794    	DB	0
04789F 0000                A  4795    	DW	0
0478A1 00                  A  4796    	DB	0
0478A2 00                  A  4797    	DB	0
0478A3 E9                  A  4798    	DB	233
0478A4 06                  A  4799    	DB	6
0478A5 1C00                A  4800    	DW	28
0478A7 00                  A  4801    	DB	0
0478A8 0000                A  4802    	DW	0
0478AA 00                  A  4803    	DB	0
0478AB 01                  A  4804    	DB	1
0478AC 0000                A  4805    	DW	0
0478AE 00                  A  4806    	DB	0
0478AF 0000                A  4807    	DW	0
0478B1 00                  A  4808    	DB	0
0478B2 00                  A  4809    	DB	0
0478B3 E9                  A  4810    	DB	233
0478B4 09                  A  4811    	DB	9
0478B5 0600                A  4812    	DW	6
0478B7 00                  A  4813    	DB	0
0478B8 0000                A  4814    	DW	0
0478BA 00                  A  4815    	DB	0
0478BB 00                  A  4816    	DB	0
0478BC 0000                A  4817    	DW	0
0478BE 00                  A  4818    	DB	0
0478BF 0000                A  4819    	DW	0
0478C1 00                  A  4820    	DB	0
0478C2 00                  A  4821    	DB	0
0478C3 C3                  A  4822    	DB	195
0478C4 09                  A  4823    	DB	9
                           A  4824    .DEFINE "operands_jp"
                           A  4825    .ALIAS "_operands_jp"
                           A  4826    .CLASS 69
                           A  4827    .VALUE _operands_jp
                           A  4828    .DIM 4
                           A  4829    .TAG "NONAME5"
                           A  4830    .TYPE 104
                           A  4831    .ENDEF
0478C5                     A  4832    _operands_jr:
0478C5 1D00                A  4833    	DW	29
0478C7 00                  A  4834    	DB	0
0478C8 0800                A  4835    	DW	8
0478CA 00                  A  4836    	DB	0
0478CB 00                  A  4837    	DB	0
0478CC 0700                A  4838    	DW	7
0478CE 00                  A  4839    	DB	0
0478CF 0D00                A  4840    	DW	13
0478D1 00                  A  4841    	DB	0
0478D2 00                  A  4842    	DB	0
0478D3 20                  A  4843    	DB	32
0478D4 00                  A  4844    	DB	0
0478D5 0800                A  4845    	DW	8
0478D7 00                  A  4846    	DB	0
0478D8 0000                A  4847    	DW	0
0478DA 00                  A  4848    	DB	0
0478DB 00                  A  4849    	DB	0
0478DC 0D00                A  4850    	DW	13
0478DE 00                  A  4851    	DB	0
0478DF 0000                A  4852    	DW	0
0478E1 00                  A  4853    	DB	0
0478E2 00                  A  4854    	DB	0
0478E3 18                  A  4855    	DB	24
0478E4 00                  A  4856    	DB	0
                           A  4857    .DEFINE "operands_jr"
                           A  4858    .ALIAS "_operands_jr"
                           A  4859    .CLASS 69
                           A  4860    .VALUE _operands_jr
                           A  4861    .DIM 2
                           A  4862    .TAG "NONAME5"
                           A  4863    .TYPE 104
                           A  4864    .ENDEF
0478E5                     A  4865    _operands_ld:
0478E5 0900                A  4866    	DW	9
0478E7 00                  A  4867    	DB	0
0478E8 1400                A  4868    	DW	20
0478EA 00                  A  4869    	DB	0
0478EB 00                  A  4870    	DB	0
0478EC 0000                A  4871    	DW	0
0478EE 00                  A  4872    	DB	0
0478EF 0000                A  4873    	DW	0
0478F1 00                  A  4874    	DB	0
0478F2 ED                  A  4875    	DB	237
0478F3 57                  A  4876    	DB	87
0478F4 00                  A  4877    	DB	0
0478F5 0900                A  4878    	DW	9
0478F7 00                  A  4879    	DB	0
0478F8 0500                A  4880    	DW	5
0478FA 00                  A  4881    	DB	0
0478FB 01                  A  4882    	DB	1
0478FC 0000                A  4883    	DW	0
0478FE 00                  A  4884    	DB	0
0478FF 0000                A  4885    	DW	0
047901 00                  A  4886    	DB	0
047902 00                  A  4887    	DB	0
047903 7E                  A  4888    	DB	126
047904 06                  A  4889    	DB	6
047905 0900                A  4890    	DW	9
047907 00                  A  4891    	DB	0
047908 1300                A  4892    	DW	19
04790A 00                  A  4893    	DB	0
04790B 00                  A  4894    	DB	0
04790C 0000                A  4895    	DW	0
04790E 00                  A  4896    	DB	0
04790F 0000                A  4897    	DW	0
047911 00                  A  4898    	DB	0
047912 ED                  A  4899    	DB	237
047913 6E                  A  4900    	DB	110
047914 00                  A  4901    	DB	0
047915 0900                A  4902    	DW	9
047917 00                  A  4903    	DB	0
047918 0700                A  4904    	DW	7
04791A 00                  A  4905    	DB	0
04791B 00                  A  4906    	DB	0
04791C 0000                A  4907    	DW	0
04791E 00                  A  4908    	DB	0
04791F 0000                A  4909    	DW	0
047921 00                  A  4910    	DB	0
047922 00                  A  4911    	DB	0
047923 3A                  A  4912    	DB	58
047924 09                  A  4913    	DB	9
047925 0900                A  4914    	DW	9
047927 00                  A  4915    	DB	0
047928 1200                A  4916    	DW	18
04792A 00                  A  4917    	DB	0
04792B 00                  A  4918    	DB	0
04792C 0000                A  4919    	DW	0
04792E 00                  A  4920    	DB	0
04792F 0000                A  4921    	DW	0
047931 00                  A  4922    	DB	0
047932 ED                  A  4923    	DB	237
047933 5F                  A  4924    	DB	95
047934 00                  A  4925    	DB	0
047935 0900                A  4926    	DW	9
047937 00                  A  4927    	DB	0
047938 1A00                A  4928    	DW	26
04793A 00                  A  4929    	DB	0
04793B 00                  A  4930    	DB	0
04793C 0000                A  4931    	DW	0
04793E 00                  A  4932    	DB	0
04793F 0000                A  4933    	DW	0
047941 00                  A  4934    	DB	0
047942 00                  A  4935    	DB	0
047943 0A                  A  4936    	DB	10
047944 06                  A  4937    	DB	6
047945 0900                A  4938    	DW	9
047947 00                  A  4939    	DB	0
047948 1E00                A  4940    	DW	30
04794A 00                  A  4941    	DB	0
04794B 00                  A  4942    	DB	0
04794C 0000                A  4943    	DW	0
04794E 00                  A  4944    	DB	0
04794F 0000                A  4945    	DW	0
047951 00                  A  4946    	DB	0
047952 00                  A  4947    	DB	0
047953 1A                  A  4948    	DB	26
047954 06                  A  4949    	DB	6
047955 0900                A  4950    	DW	9
047957 00                  A  4951    	DB	0
047958 0B00                A  4952    	DW	11
04795A 00                  A  4953    	DB	0
04795B 00                  A  4954    	DB	0
04795C 0000                A  4955    	DW	0
04795E 00                  A  4956    	DB	0
04795F 0000                A  4957    	DW	0
047961 00                  A  4958    	DB	0
047962 00                  A  4959    	DB	0
047963 7E                  A  4960    	DB	126
047964 06                  A  4961    	DB	6
047965 0A00                A  4962    	DW	10
047967 00                  A  4963    	DB	0
047968 1400                A  4964    	DW	20
04796A 00                  A  4965    	DB	0
04796B 00                  A  4966    	DB	0
04796C 0000                A  4967    	DW	0
04796E 00                  A  4968    	DB	0
04796F 0000                A  4969    	DW	0
047971 00                  A  4970    	DB	0
047972 ED                  A  4971    	DB	237
047973 D7                  A  4972    	DB	215
047974 00                  A  4973    	DB	0
047975 0B00                A  4974    	DW	11
047977 00                  A  4975    	DB	0
047978 1F00                A  4976    	DW	31
04797A 00                  A  4977    	DB	0
04797B 00                  A  4978    	DB	0
04797C 0000                A  4979    	DW	0
04797E 00                  A  4980    	DB	0
04797F 0000                A  4981    	DW	0
047981 00                  A  4982    	DB	0
047982 ED                  A  4983    	DB	237
047983 3F                  A  4984    	DB	63
047984 06                  A  4985    	DB	6
047985 0B00                A  4986    	DW	11
047987 00                  A  4987    	DB	0
047988 2000                A  4988    	DW	32
04798A 00                  A  4989    	DB	0
04798B 00                  A  4990    	DB	0
04798C 0000                A  4991    	DW	0
04798E 00                  A  4992    	DB	0
04798F 0000                A  4993    	DW	0
047991 00                  A  4994    	DB	0
047992 ED                  A  4995    	DB	237
047993 3E                  A  4996    	DB	62
047994 06                  A  4997    	DB	6
047995 0B00                A  4998    	DW	11
047997 00                  A  4999    	DB	0
047998 0800                A  5000    	DW	8
04799A 00                  A  5001    	DB	0
04799B 00                  A  5002    	DB	0
04799C 0000                A  5003    	DW	0
04799E 00                  A  5004    	DB	0
04799F 0000                A  5005    	DW	0
0479A1 00                  A  5006    	DB	0
0479A2 00                  A  5007    	DB	0
0479A3 36                  A  5008    	DB	54
0479A4 06                  A  5009    	DB	6
0479A5 0B00                A  5010    	DW	11
0479A7 00                  A  5011    	DB	0
0479A8 1100                A  5012    	DW	17
0479AA 00                  A  5013    	DB	0
0479AB 00                  A  5014    	DB	0
0479AC 0000                A  5015    	DW	0
0479AE 00                  A  5016    	DB	0
0479AF 0300                A  5017    	DW	3
0479B1 00                  A  5018    	DB	0
0479B2 00                  A  5019    	DB	0
0479B3 70                  A  5020    	DB	112
0479B4 06                  A  5021    	DB	6
0479B5 0B00                A  5022    	DW	11
0479B7 00                  A  5023    	DB	0
0479B8 0C00                A  5024    	DW	12
0479BA 00                  A  5025    	DB	0
0479BB 00                  A  5026    	DB	0
0479BC 0000                A  5027    	DW	0
0479BE 00                  A  5028    	DB	0
0479BF 0400                A  5029    	DW	4
0479C1 00                  A  5030    	DB	0
0479C2 ED                  A  5031    	DB	237
0479C3 0F                  A  5032    	DB	15
0479C4 06                  A  5033    	DB	6
0479C5 1400                A  5034    	DW	20
0479C7 00                  A  5035    	DB	0
0479C8 0A00                A  5036    	DW	10
0479CA 00                  A  5037    	DB	0
0479CB 00                  A  5038    	DB	0
0479CC 0000                A  5039    	DW	0
0479CE 00                  A  5040    	DB	0
0479CF 0000                A  5041    	DW	0
0479D1 00                  A  5042    	DB	0
0479D2 ED                  A  5043    	DB	237
0479D3 C7                  A  5044    	DB	199
0479D4 00                  A  5045    	DB	0
0479D5 1400                A  5046    	DW	20
0479D7 00                  A  5047    	DB	0
0479D8 0900                A  5048    	DW	9
0479DA 00                  A  5049    	DB	0
0479DB 00                  A  5050    	DB	0
0479DC 0000                A  5051    	DW	0
0479DE 00                  A  5052    	DB	0
0479DF 0000                A  5053    	DW	0
0479E1 00                  A  5054    	DB	0
0479E2 ED                  A  5055    	DB	237
0479E3 47                  A  5056    	DB	71
0479E4 00                  A  5057    	DB	0
0479E5 0200                A  5058    	DW	2
0479E7 00                  A  5059    	DB	0
0479E8 0200                A  5060    	DW	2
0479EA 00                  A  5061    	DB	0
0479EB 01                  A  5062    	DB	1
0479EC 0900                A  5063    	DW	9
0479EE 00                  A  5064    	DB	0
0479EF 0800                A  5065    	DW	8
0479F1 00                  A  5066    	DB	0
0479F2 00                  A  5067    	DB	0
0479F3 64                  A  5068    	DB	100
0479F4 00                  A  5069    	DB	0
0479F5 0200                A  5070    	DW	2
0479F7 00                  A  5071    	DB	0
0479F8 0800                A  5072    	DW	8
0479FA 00                  A  5073    	DB	0
0479FB 01                  A  5074    	DB	1
0479FC 0900                A  5075    	DW	9
0479FE 00                  A  5076    	DB	0
0479FF 0000                A  5077    	DW	0
047A01 00                  A  5078    	DB	0
047A02 00                  A  5079    	DB	0
047A03 26                  A  5080    	DB	38
047A04 00                  A  5081    	DB	0
047A05 0200                A  5082    	DW	2
047A07 00                  A  5083    	DB	0
047A08 2500                A  5084    	DW	37
047A0A 00                  A  5085    	DB	0
047A0B 01                  A  5086    	DB	1
047A0C 0900                A  5087    	DW	9
047A0E 00                  A  5088    	DB	0
047A0F 0300                A  5089    	DW	3
047A11 00                  A  5090    	DB	0
047A12 00                  A  5091    	DB	0
047A13 60                  A  5092    	DB	96
047A14 00                  A  5093    	DB	0
047A15 1F00                A  5094    	DW	31
047A17 00                  A  5095    	DB	0
047A18 0B00                A  5096    	DW	11
047A1A 00                  A  5097    	DB	0
047A1B 00                  A  5098    	DB	0
047A1C 0000                A  5099    	DW	0
047A1E 00                  A  5100    	DB	0
047A1F 0000                A  5101    	DW	0
047A21 00                  A  5102    	DB	0
047A22 ED                  A  5103    	DB	237
047A23 37                  A  5104    	DB	55
047A24 06                  A  5105    	DB	6
047A25 2000                A  5106    	DW	32
047A27 00                  A  5107    	DB	0
047A28 0B00                A  5108    	DW	11
047A2A 00                  A  5109    	DB	0
047A2B 00                  A  5110    	DB	0
047A2C 0000                A  5111    	DW	0
047A2E 00                  A  5112    	DB	0
047A2F 0000                A  5113    	DW	0
047A31 00                  A  5114    	DB	0
047A32 ED                  A  5115    	DB	237
047A33 31                  A  5116    	DB	49
047A34 06                  A  5117    	DB	6
047A35 1F00                A  5118    	DW	31
047A37 00                  A  5119    	DB	0
047A38 2300                A  5120    	DW	35
047A3A 00                  A  5121    	DB	0
047A3B 01                  A  5122    	DB	1
047A3C 0000                A  5123    	DW	0
047A3E 00                  A  5124    	DB	0
047A3F 0000                A  5125    	DW	0
047A41 00                  A  5126    	DB	0
047A42 00                  A  5127    	DB	0
047A43 37                  A  5128    	DB	55
047A44 06                  A  5129    	DB	6
047A45 2000                A  5130    	DW	32
047A47 00                  A  5131    	DB	0
047A48 2400                A  5132    	DW	36
047A4A 00                  A  5133    	DB	0
047A4B 01                  A  5134    	DB	1
047A4C 0000                A  5135    	DW	0
047A4E 00                  A  5136    	DB	0
047A4F 0000                A  5137    	DW	0
047A51 00                  A  5138    	DB	0
047A52 00                  A  5139    	DB	0
047A53 37                  A  5140    	DB	55
047A54 06                  A  5141    	DB	6
047A55 1F00                A  5142    	DW	31
047A57 00                  A  5143    	DB	0
047A58 2400                A  5144    	DW	36
047A5A 00                  A  5145    	DB	0
047A5B 01                  A  5146    	DB	1
047A5C 0000                A  5147    	DW	0
047A5E 00                  A  5148    	DB	0
047A5F 0000                A  5149    	DW	0
047A61 00                  A  5150    	DB	0
047A62 00                  A  5151    	DB	0
047A63 31                  A  5152    	DB	49
047A64 06                  A  5153    	DB	6
047A65 2000                A  5154    	DW	32
047A67 00                  A  5155    	DB	0
047A68 2300                A  5156    	DW	35
047A6A 00                  A  5157    	DB	0
047A6B 01                  A  5158    	DB	1
047A6C 0000                A  5159    	DW	0
047A6E 00                  A  5160    	DB	0
047A6F 0000                A  5161    	DW	0
047A71 00                  A  5162    	DB	0
047A72 00                  A  5163    	DB	0
047A73 31                  A  5164    	DB	49
047A74 06                  A  5165    	DB	6
047A75 0300                A  5166    	DW	3
047A77 00                  A  5167    	DB	0
047A78 0600                A  5168    	DW	6
047A7A 00                  A  5169    	DB	0
047A7B 01                  A  5170    	DB	1
047A7C 0000                A  5171    	DW	0
047A7E 00                  A  5172    	DB	0
047A7F 0000                A  5173    	DW	0
047A81 00                  A  5174    	DB	0
047A82 00                  A  5175    	DB	0
047A83 21                  A  5176    	DB	33
047A84 09                  A  5177    	DB	9
047A85 0300                A  5178    	DW	3
047A87 00                  A  5179    	DB	0
047A88 0700                A  5180    	DW	7
047A8A 00                  A  5181    	DB	0
047A8B 01                  A  5182    	DB	1
047A8C 0000                A  5183    	DW	0
047A8E 00                  A  5184    	DB	0
047A8F 0000                A  5185    	DW	0
047A91 00                  A  5186    	DB	0
047A92 00                  A  5187    	DB	0
047A93 2A                  A  5188    	DB	42
047A94 09                  A  5189    	DB	9
047A95 2300                A  5190    	DW	35
047A97 00                  A  5191    	DB	0
047A98 1F00                A  5192    	DW	31
047A9A 00                  A  5193    	DB	0
047A9B 01                  A  5194    	DB	1
047A9C 0000                A  5195    	DW	0
047A9E 00                  A  5196    	DB	0
047A9F 0000                A  5197    	DW	0
047AA1 00                  A  5198    	DB	0
047AA2 00                  A  5199    	DB	0
047AA3 3F                  A  5200    	DB	63
047AA4 06                  A  5201    	DB	6
047AA5 2400                A  5202    	DW	36
047AA7 00                  A  5203    	DB	0
047AA8 2000                A  5204    	DW	32
047AAA 00                  A  5205    	DB	0
047AAB 01                  A  5206    	DB	1
047AAC 0000                A  5207    	DW	0
047AAE 00                  A  5208    	DB	0
047AAF 0000                A  5209    	DW	0
047AB1 00                  A  5210    	DB	0
047AB2 00                  A  5211    	DB	0
047AB3 3F                  A  5212    	DB	63
047AB4 06                  A  5213    	DB	6
047AB5 2300                A  5214    	DW	35
047AB7 00                  A  5215    	DB	0
047AB8 2000                A  5216    	DW	32
047ABA 00                  A  5217    	DB	0
047ABB 01                  A  5218    	DB	1
047ABC 0000                A  5219    	DW	0
047ABE 00                  A  5220    	DB	0
047ABF 0000                A  5221    	DW	0
047AC1 00                  A  5222    	DB	0
047AC2 00                  A  5223    	DB	0
047AC3 3E                  A  5224    	DB	62
047AC4 06                  A  5225    	DB	6
047AC5 2400                A  5226    	DW	36
047AC7 00                  A  5227    	DB	0
047AC8 1F00                A  5228    	DW	31
047ACA 00                  A  5229    	DB	0
047ACB 01                  A  5230    	DB	1
047ACC 0000                A  5231    	DW	0
047ACE 00                  A  5232    	DB	0
047ACF 0000                A  5233    	DW	0
047AD1 00                  A  5234    	DB	0
047AD2 00                  A  5235    	DB	0
047AD3 3E                  A  5236    	DB	62
047AD4 06                  A  5237    	DB	6
047AD5 0500                A  5238    	DW	5
047AD7 00                  A  5239    	DB	0
047AD8 0800                A  5240    	DW	8
047ADA 00                  A  5241    	DB	0
047ADB 01                  A  5242    	DB	1
047ADC 0000                A  5243    	DW	0
047ADE 00                  A  5244    	DB	0
047ADF 0000                A  5245    	DW	0
047AE1 00                  A  5246    	DB	0
047AE2 00                  A  5247    	DB	0
047AE3 36                  A  5248    	DB	54
047AE4 06                  A  5249    	DB	6
047AE5 0500                A  5250    	DW	5
047AE7 00                  A  5251    	DB	0
047AE8 1100                A  5252    	DW	17
047AEA 00                  A  5253    	DB	0
047AEB 01                  A  5254    	DB	1
047AEC 0000                A  5255    	DW	0
047AEE 00                  A  5256    	DB	0
047AEF 0300                A  5257    	DW	3
047AF1 00                  A  5258    	DB	0
047AF2 00                  A  5259    	DB	0
047AF3 70                  A  5260    	DB	112
047AF4 06                  A  5261    	DB	6
047AF5 0500                A  5262    	DW	5
047AF7 00                  A  5263    	DB	0
047AF8 0C00                A  5264    	DW	12
047AFA 00                  A  5265    	DB	0
047AFB 01                  A  5266    	DB	1
047AFC 0000                A  5267    	DW	0
047AFE 00                  A  5268    	DB	0
047AFF 0400                A  5269    	DW	4
047B01 00                  A  5270    	DB	0
047B02 00                  A  5271    	DB	0
047B03 0F                  A  5272    	DB	15
047B04 06                  A  5273    	DB	6
047B05 1300                A  5274    	DW	19
047B07 00                  A  5275    	DB	0
047B08 0900                A  5276    	DW	9
047B0A 00                  A  5277    	DB	0
047B0B 00                  A  5278    	DB	0
047B0C 0000                A  5279    	DW	0
047B0E 00                  A  5280    	DB	0
047B0F 0000                A  5281    	DW	0
047B11 00                  A  5282    	DB	0
047B12 ED                  A  5283    	DB	237
047B13 6D                  A  5284    	DB	109
047B14 00                  A  5285    	DB	0
047B15 0700                A  5286    	DW	7
047B17 00                  A  5287    	DB	0
047B18 0900                A  5288    	DW	9
047B1A 00                  A  5289    	DB	0
047B1B 00                  A  5290    	DB	0
047B1C 0000                A  5291    	DW	0
047B1E 00                  A  5292    	DB	0
047B1F 0000                A  5293    	DW	0
047B21 00                  A  5294    	DB	0
047B22 00                  A  5295    	DB	0
047B23 32                  A  5296    	DB	50
047B24 09                  A  5297    	DB	9
047B25 0700                A  5298    	DW	7
047B27 00                  A  5299    	DB	0
047B28 0300                A  5300    	DW	3
047B2A 00                  A  5301    	DB	0
047B2B 01                  A  5302    	DB	1
047B2C 0000                A  5303    	DW	0
047B2E 00                  A  5304    	DB	0
047B2F 0000                A  5305    	DW	0
047B31 00                  A  5306    	DB	0
047B32 00                  A  5307    	DB	0
047B33 22                  A  5308    	DB	34
047B34 09                  A  5309    	DB	9
047B35 0700                A  5310    	DW	7
047B37 00                  A  5311    	DB	0
047B38 0A00                A  5312    	DW	10
047B3A 00                  A  5313    	DB	0
047B3B 00                  A  5314    	DB	0
047B3C 0000                A  5315    	DW	0
047B3E 00                  A  5316    	DB	0
047B3F 0000                A  5317    	DW	0
047B41 00                  A  5318    	DB	0
047B42 00                  A  5319    	DB	0
047B43 22                  A  5320    	DB	34
047B44 09                  A  5321    	DB	9
047B45 0700                A  5322    	DW	7
047B47 00                  A  5323    	DB	0
047B48 0C00                A  5324    	DW	12
047B4A 00                  A  5325    	DB	0
047B4B 00                  A  5326    	DB	0
047B4C 0000                A  5327    	DW	0
047B4E 00                  A  5328    	DB	0
047B4F 0400                A  5329    	DW	4
047B51 00                  A  5330    	DB	0
047B52 ED                  A  5331    	DB	237
047B53 43                  A  5332    	DB	67
047B54 09                  A  5333    	DB	9
047B55 0700                A  5334    	DW	7
047B57 00                  A  5335    	DB	0
047B58 0F00                A  5336    	DW	15
047B5A 00                  A  5337    	DB	0
047B5B 00                  A  5338    	DB	0
047B5C 0000                A  5339    	DW	0
047B5E 00                  A  5340    	DB	0
047B5F 0000                A  5341    	DW	0
047B61 00                  A  5342    	DB	0
047B62 ED                  A  5343    	DB	237
047B63 73                  A  5344    	DB	115
047B64 09                  A  5345    	DB	9
047B65 1200                A  5346    	DW	18
047B67 00                  A  5347    	DB	0
047B68 0900                A  5348    	DW	9
047B6A 00                  A  5349    	DB	0
047B6B 00                  A  5350    	DB	0
047B6C 0000                A  5351    	DW	0
047B6E 00                  A  5352    	DB	0
047B6F 0000                A  5353    	DW	0
047B71 00                  A  5354    	DB	0
047B72 ED                  A  5355    	DB	237
047B73 4F                  A  5356    	DB	79
047B74 00                  A  5357    	DB	0
047B75 1100                A  5358    	DW	17
047B77 00                  A  5359    	DB	0
047B78 0B00                A  5360    	DW	11
047B7A 00                  A  5361    	DB	0
047B7B 00                  A  5362    	DB	0
047B7C 0200                A  5363    	DW	2
047B7E 00                  A  5364    	DB	0
047B7F 0000                A  5365    	DW	0
047B81 00                  A  5366    	DB	0
047B82 00                  A  5367    	DB	0
047B83 46                  A  5368    	DB	70
047B84 06                  A  5369    	DB	6
047B85 2500                A  5370    	DW	37
047B87 00                  A  5371    	DB	0
047B88 0200                A  5372    	DW	2
047B8A 00                  A  5373    	DB	0
047B8B 01                  A  5374    	DB	1
047B8C 0200                A  5375    	DW	2
047B8E 00                  A  5376    	DB	0
047B8F 0800                A  5377    	DW	8
047B91 00                  A  5378    	DB	0
047B92 00                  A  5379    	DB	0
047B93 44                  A  5380    	DB	68
047B94 00                  A  5381    	DB	0
047B95 1100                A  5382    	DW	17
047B97 00                  A  5383    	DB	0
047B98 0500                A  5384    	DW	5
047B9A 00                  A  5385    	DB	0
047B9B 01                  A  5386    	DB	1
047B9C 0200                A  5387    	DW	2
047B9E 00                  A  5388    	DB	0
047B9F 0000                A  5389    	DW	0
047BA1 00                  A  5390    	DB	0
047BA2 00                  A  5391    	DB	0
047BA3 46                  A  5392    	DB	70
047BA4 06                  A  5393    	DB	6
047BA5 1100                A  5394    	DW	17
047BA7 00                  A  5395    	DB	0
047BA8 0800                A  5396    	DW	8
047BAA 00                  A  5397    	DB	0
047BAB 00                  A  5398    	DB	0
047BAC 0200                A  5399    	DW	2
047BAE 00                  A  5400    	DB	0
047BAF 0000                A  5401    	DW	0
047BB1 00                  A  5402    	DB	0
047BB2 00                  A  5403    	DB	0
047BB3 06                  A  5404    	DB	6
047BB4 00                  A  5405    	DB	0
047BB5 1100                A  5406    	DW	17
047BB7 00                  A  5407    	DB	0
047BB8 1100                A  5408    	DW	17
047BBA 00                  A  5409    	DB	0
047BBB 00                  A  5410    	DB	0
047BBC 0200                A  5411    	DW	2
047BBE 00                  A  5412    	DB	0
047BBF 0300                A  5413    	DW	3
047BC1 00                  A  5414    	DB	0
047BC2 00                  A  5415    	DB	0
047BC3 40                  A  5416    	DB	64
047BC4 00                  A  5417    	DB	0
047BC5 0C00                A  5418    	DW	12
047BC7 00                  A  5419    	DB	0
047BC8 0B00                A  5420    	DW	11
047BCA 00                  A  5421    	DB	0
047BCB 00                  A  5422    	DB	0
047BCC 0400                A  5423    	DW	4
047BCE 00                  A  5424    	DB	0
047BCF 0000                A  5425    	DW	0
047BD1 00                  A  5426    	DB	0
047BD2 ED                  A  5427    	DB	237
047BD3 07                  A  5428    	DB	7
047BD4 06                  A  5429    	DB	6
047BD5 0C00                A  5430    	DW	12
047BD7 00                  A  5431    	DB	0
047BD8 0500                A  5432    	DW	5
047BDA 00                  A  5433    	DB	0
047BDB 01                  A  5434    	DB	1
047BDC 0400                A  5435    	DW	4
047BDE 00                  A  5436    	DB	0
047BDF 0000                A  5437    	DW	0
047BE1 00                  A  5438    	DB	0
047BE2 00                  A  5439    	DB	0
047BE3 07                  A  5440    	DB	7
047BE4 06                  A  5441    	DB	6
047BE5 0C00                A  5442    	DW	12
047BE7 00                  A  5443    	DB	0
047BE8 0600                A  5444    	DW	6
047BEA 00                  A  5445    	DB	0
047BEB 01                  A  5446    	DB	1
047BEC 0400                A  5447    	DW	4
047BEE 00                  A  5448    	DB	0
047BEF 0000                A  5449    	DW	0
047BF1 00                  A  5450    	DB	0
047BF2 00                  A  5451    	DB	0
047BF3 01                  A  5452    	DB	1
047BF4 09                  A  5453    	DB	9
047BF5 0A00                A  5454    	DW	10
047BF7 00                  A  5455    	DB	0
047BF8 0700                A  5456    	DW	7
047BFA 00                  A  5457    	DB	0
047BFB 00                  A  5458    	DB	0
047BFC 0000                A  5459    	DW	0
047BFE 00                  A  5460    	DB	0
047BFF 0000                A  5461    	DW	0
047C01 00                  A  5462    	DB	0
047C02 00                  A  5463    	DB	0
047C03 2A                  A  5464    	DB	42
047C04 09                  A  5465    	DB	9
047C05 0C00                A  5466    	DW	12
047C07 00                  A  5467    	DB	0
047C08 0700                A  5468    	DW	7
047C0A 00                  A  5469    	DB	0
047C0B 00                  A  5470    	DB	0
047C0C 0400                A  5471    	DW	4
047C0E 00                  A  5472    	DB	0
047C0F 0000                A  5473    	DW	0
047C11 00                  A  5474    	DB	0
047C12 ED                  A  5475    	DB	237
047C13 4B                  A  5476    	DB	75
047C14 09                  A  5477    	DB	9
047C15 0B00                A  5478    	DW	11
047C17 00                  A  5479    	DB	0
047C18 0900                A  5480    	DW	9
047C1A 00                  A  5481    	DB	0
047C1B 00                  A  5482    	DB	0
047C1C 0000                A  5483    	DW	0
047C1E 00                  A  5484    	DB	0
047C1F 0000                A  5485    	DW	0
047C21 00                  A  5486    	DB	0
047C22 00                  A  5487    	DB	0
047C23 77                  A  5488    	DB	119
047C24 06                  A  5489    	DB	6
047C25 0D00                A  5490    	DW	13
047C27 00                  A  5491    	DB	0
047C28 0900                A  5492    	DW	9
047C2A 00                  A  5493    	DB	0
047C2B 00                  A  5494    	DB	0
047C2C 0400                A  5495    	DW	4
047C2E 00                  A  5496    	DB	0
047C2F 0000                A  5497    	DW	0
047C31 00                  A  5498    	DB	0
047C32 00                  A  5499    	DB	0
047C33 02                  A  5500    	DB	2
047C34 06                  A  5501    	DB	6
047C35 0F00                A  5502    	DW	15
047C37 00                  A  5503    	DB	0
047C38 0A00                A  5504    	DW	10
047C3A 00                  A  5505    	DB	0
047C3B 00                  A  5506    	DB	0
047C3C 0000                A  5507    	DW	0
047C3E 00                  A  5508    	DB	0
047C3F 0000                A  5509    	DW	0
047C41 00                  A  5510    	DB	0
047C42 00                  A  5511    	DB	0
047C43 F9                  A  5512    	DB	249
047C44 06                  A  5513    	DB	6
047C45 0F00                A  5514    	DW	15
047C47 00                  A  5515    	DB	0
047C48 0300                A  5516    	DW	3
047C4A 00                  A  5517    	DB	0
047C4B 01                  A  5518    	DB	1
047C4C 0000                A  5519    	DW	0
047C4E 00                  A  5520    	DB	0
047C4F 0000                A  5521    	DW	0
047C51 00                  A  5522    	DB	0
047C52 00                  A  5523    	DB	0
047C53 F9                  A  5524    	DB	249
047C54 06                  A  5525    	DB	6
047C55 0F00                A  5526    	DW	15
047C57 00                  A  5527    	DB	0
047C58 0600                A  5528    	DW	6
047C5A 00                  A  5529    	DB	0
047C5B 01                  A  5530    	DB	1
047C5C 0000                A  5531    	DW	0
047C5E 00                  A  5532    	DB	0
047C5F 0000                A  5533    	DW	0
047C61 00                  A  5534    	DB	0
047C62 00                  A  5535    	DB	0
047C63 31                  A  5536    	DB	49
047C64 09                  A  5537    	DB	9
047C65 0F00                A  5538    	DW	15
047C67 00                  A  5539    	DB	0
047C68 0700                A  5540    	DW	7
047C6A 00                  A  5541    	DB	0
047C6B 00                  A  5542    	DB	0
047C6C 0000                A  5543    	DW	0
047C6E 00                  A  5544    	DB	0
047C6F 0000                A  5545    	DW	0
047C71 00                  A  5546    	DB	0
047C72 ED                  A  5547    	DB	237
047C73 7B                  A  5548    	DB	123
047C74 09                  A  5549    	DB	9
                           A  5550    .DEFINE "operands_ld"
                           A  5551    .ALIAS "_operands_ld"
                           A  5552    .CLASS 69
                           A  5553    .VALUE _operands_ld
                           A  5554    .DIM 57
                           A  5555    .TAG "NONAME5"
                           A  5556    .TYPE 104
                           A  5557    .ENDEF
047C75                     A  5558    _operands_ldd:
047C75 0000                A  5559    	DW	0
047C77 00                  A  5560    	DB	0
047C78 0000                A  5561    	DW	0
047C7A 00                  A  5562    	DB	0
047C7B 00                  A  5563    	DB	0
047C7C 0000                A  5564    	DW	0
047C7E 00                  A  5565    	DB	0
047C7F 0000                A  5566    	DW	0
047C81 00                  A  5567    	DB	0
047C82 ED                  A  5568    	DB	237
047C83 A8                  A  5569    	DB	168
047C84 06                  A  5570    	DB	6
                           A  5571    .DEFINE "operands_ldd"
                           A  5572    .ALIAS "_operands_ldd"
                           A  5573    .CLASS 69
                           A  5574    .VALUE _operands_ldd
                           A  5575    .DIM 1
                           A  5576    .TAG "NONAME5"
                           A  5577    .TYPE 104
                           A  5578    .ENDEF
047C85                     A  5579    _operands_lddr:
047C85 0000                A  5580    	DW	0
047C87 00                  A  5581    	DB	0
047C88 0000                A  5582    	DW	0
047C8A 00                  A  5583    	DB	0
047C8B 00                  A  5584    	DB	0
047C8C 0000                A  5585    	DW	0
047C8E 00                  A  5586    	DB	0
047C8F 0000                A  5587    	DW	0
047C91 00                  A  5588    	DB	0
047C92 ED                  A  5589    	DB	237
047C93 B8                  A  5590    	DB	184
047C94 06                  A  5591    	DB	6
                           A  5592    .DEFINE "operands_lddr"
                           A  5593    .ALIAS "_operands_lddr"
                           A  5594    .CLASS 69
                           A  5595    .VALUE _operands_lddr
                           A  5596    .DIM 1
                           A  5597    .TAG "NONAME5"
                           A  5598    .TYPE 104
                           A  5599    .ENDEF
047C95                     A  5600    _operands_ldi:
047C95 0000                A  5601    	DW	0
047C97 00                  A  5602    	DB	0
047C98 0000                A  5603    	DW	0
047C9A 00                  A  5604    	DB	0
047C9B 00                  A  5605    	DB	0
047C9C 0000                A  5606    	DW	0
047C9E 00                  A  5607    	DB	0
047C9F 0000                A  5608    	DW	0
047CA1 00                  A  5609    	DB	0
047CA2 ED                  A  5610    	DB	237
047CA3 A0                  A  5611    	DB	160
047CA4 06                  A  5612    	DB	6
                           A  5613    .DEFINE "operands_ldi"
                           A  5614    .ALIAS "_operands_ldi"
                           A  5615    .CLASS 69
                           A  5616    .VALUE _operands_ldi
                           A  5617    .DIM 1
                           A  5618    .TAG "NONAME5"
                           A  5619    .TYPE 104
                           A  5620    .ENDEF
047CA5                     A  5621    _operands_ldir:
047CA5 0000                A  5622    	DW	0
047CA7 00                  A  5623    	DB	0
047CA8 0000                A  5624    	DW	0
047CAA 00                  A  5625    	DB	0
047CAB 00                  A  5626    	DB	0
047CAC 0000                A  5627    	DW	0
047CAE 00                  A  5628    	DB	0
047CAF 0000                A  5629    	DW	0
047CB1 00                  A  5630    	DB	0
047CB2 ED                  A  5631    	DB	237
047CB3 B0                  A  5632    	DB	176
047CB4 06                  A  5633    	DB	6
                           A  5634    .DEFINE "operands_ldir"
                           A  5635    .ALIAS "_operands_ldir"
                           A  5636    .CLASS 69
                           A  5637    .VALUE _operands_ldir
                           A  5638    .DIM 1
                           A  5639    .TAG "NONAME5"
                           A  5640    .TYPE 104
                           A  5641    .ENDEF
047CB5                     A  5642    _operands_lea:
047CB5 1F00                A  5643    	DW	31
047CB7 00                  A  5644    	DB	0
047CB8 2100                A  5645    	DW	33
047CBA 00                  A  5646    	DB	0
047CBB 00                  A  5647    	DB	0
047CBC 0000                A  5648    	DW	0
047CBE 00                  A  5649    	DB	0
047CBF 0000                A  5650    	DW	0
047CC1 00                  A  5651    	DB	0
047CC2 ED                  A  5652    	DB	237
047CC3 32                  A  5653    	DB	50
047CC4 06                  A  5654    	DB	6
047CC5 2000                A  5655    	DW	32
047CC7 00                  A  5656    	DB	0
047CC8 2100                A  5657    	DW	33
047CCA 00                  A  5658    	DB	0
047CCB 00                  A  5659    	DB	0
047CCC 0000                A  5660    	DW	0
047CCE 00                  A  5661    	DB	0
047CCF 0000                A  5662    	DW	0
047CD1 00                  A  5663    	DB	0
047CD2 ED                  A  5664    	DB	237
047CD3 55                  A  5665    	DB	85
047CD4 06                  A  5666    	DB	6
047CD5 1F00                A  5667    	DW	31
047CD7 00                  A  5668    	DB	0
047CD8 2200                A  5669    	DW	34
047CDA 00                  A  5670    	DB	0
047CDB 00                  A  5671    	DB	0
047CDC 0000                A  5672    	DW	0
047CDE 00                  A  5673    	DB	0
047CDF 0000                A  5674    	DW	0
047CE1 00                  A  5675    	DB	0
047CE2 ED                  A  5676    	DB	237
047CE3 54                  A  5677    	DB	84
047CE4 06                  A  5678    	DB	6
047CE5 2000                A  5679    	DW	32
047CE7 00                  A  5680    	DB	0
047CE8 2200                A  5681    	DW	34
047CEA 00                  A  5682    	DB	0
047CEB 00                  A  5683    	DB	0
047CEC 0000                A  5684    	DW	0
047CEE 00                  A  5685    	DB	0
047CEF 0000                A  5686    	DW	0
047CF1 00                  A  5687    	DB	0
047CF2 ED                  A  5688    	DB	237
047CF3 33                  A  5689    	DB	51
047CF4 06                  A  5690    	DB	6
047CF5 0C00                A  5691    	DW	12
047CF7 00                  A  5692    	DB	0
047CF8 2100                A  5693    	DW	33
047CFA 00                  A  5694    	DB	0
047CFB 00                  A  5695    	DB	0
047CFC 0400                A  5696    	DW	4
047CFE 00                  A  5697    	DB	0
047CFF 0000                A  5698    	DW	0
047D01 00                  A  5699    	DB	0
047D02 ED                  A  5700    	DB	237
047D03 02                  A  5701    	DB	2
047D04 06                  A  5702    	DB	6
047D05 0C00                A  5703    	DW	12
047D07 00                  A  5704    	DB	0
047D08 2200                A  5705    	DW	34
047D0A 00                  A  5706    	DB	0
047D0B 00                  A  5707    	DB	0
047D0C 0400                A  5708    	DW	4
047D0E 00                  A  5709    	DB	0
047D0F 0000                A  5710    	DW	0
047D11 00                  A  5711    	DB	0
047D12 ED                  A  5712    	DB	237
047D13 03                  A  5713    	DB	3
047D14 06                  A  5714    	DB	6
                           A  5715    .DEFINE "operands_lea"
                           A  5716    .ALIAS "_operands_lea"
                           A  5717    .CLASS 69
                           A  5718    .VALUE _operands_lea
                           A  5719    .DIM 6
                           A  5720    .TAG "NONAME5"
                           A  5721    .TYPE 104
                           A  5722    .ENDEF
047D15                     A  5723    _operands_mlt:
047D15 0C00                A  5724    	DW	12
047D17 00                  A  5725    	DB	0
047D18 0000                A  5726    	DW	0
047D1A 00                  A  5727    	DB	0
047D1B 00                  A  5728    	DB	0
047D1C 0400                A  5729    	DW	4
047D1E 00                  A  5730    	DB	0
047D1F 0000                A  5731    	DW	0
047D21 00                  A  5732    	DB	0
047D22 ED                  A  5733    	DB	237
047D23 4C                  A  5734    	DB	76
047D24 00                  A  5735    	DB	0
047D25 0F00                A  5736    	DW	15
047D27 00                  A  5737    	DB	0
047D28 0000                A  5738    	DW	0
047D2A 00                  A  5739    	DB	0
047D2B 00                  A  5740    	DB	0
047D2C 0000                A  5741    	DW	0
047D2E 00                  A  5742    	DB	0
047D2F 0000                A  5743    	DW	0
047D31 00                  A  5744    	DB	0
047D32 ED                  A  5745    	DB	237
047D33 7C                  A  5746    	DB	124
047D34 06                  A  5747    	DB	6
                           A  5748    .DEFINE "operands_mlt"
                           A  5749    .ALIAS "_operands_mlt"
                           A  5750    .CLASS 69
                           A  5751    .VALUE _operands_mlt
                           A  5752    .DIM 2
                           A  5753    .TAG "NONAME5"
                           A  5754    .TYPE 104
                           A  5755    .ENDEF
047D35                     A  5756    _operands_neg:
047D35 0000                A  5757    	DW	0
047D37 00                  A  5758    	DB	0
047D38 0000                A  5759    	DW	0
047D3A 00                  A  5760    	DB	0
047D3B 00                  A  5761    	DB	0
047D3C 0000                A  5762    	DW	0
047D3E 00                  A  5763    	DB	0
047D3F 0000                A  5764    	DW	0
047D41 00                  A  5765    	DB	0
047D42 ED                  A  5766    	DB	237
047D43 44                  A  5767    	DB	68
047D44 00                  A  5768    	DB	0
                           A  5769    .DEFINE "operands_neg"
                           A  5770    .ALIAS "_operands_neg"
                           A  5771    .CLASS 69
                           A  5772    .VALUE _operands_neg
                           A  5773    .DIM 1
                           A  5774    .TAG "NONAME5"
                           A  5775    .TYPE 104
                           A  5776    .ENDEF
047D45                     A  5777    _operands_nop:
047D45 0000                A  5778    	DW	0
047D47 00                  A  5779    	DB	0
047D48 0000                A  5780    	DW	0
047D4A 00                  A  5781    	DB	0
047D4B 00                  A  5782    	DB	0
047D4C 0000                A  5783    	DW	0
047D4E 00                  A  5784    	DB	0
047D4F 0000                A  5785    	DW	0
047D51 00                  A  5786    	DB	0
047D52 00                  A  5787    	DB	0
047D53 00                  A  5788    	DB	0
047D54 00                  A  5789    	DB	0
                           A  5790    .DEFINE "operands_nop"
                           A  5791    .ALIAS "_operands_nop"
                           A  5792    .CLASS 69
                           A  5793    .VALUE _operands_nop
                           A  5794    .DIM 1
                           A  5795    .TAG "NONAME5"
                           A  5796    .TYPE 104
                           A  5797    .ENDEF
047D55                     A  5798    _operands_or:
047D55 0900                A  5799    	DW	9
047D57 00                  A  5800    	DB	0
047D58 0B00                A  5801    	DW	11
047D5A 00                  A  5802    	DB	0
047D5B 00                  A  5803    	DB	0
047D5C 0000                A  5804    	DW	0
047D5E 00                  A  5805    	DB	0
047D5F 0000                A  5806    	DW	0
047D61 00                  A  5807    	DB	0
047D62 00                  A  5808    	DB	0
047D63 B6                  A  5809    	DB	182
047D64 06                  A  5810    	DB	6
047D65 0900                A  5811    	DW	9
047D67 00                  A  5812    	DB	0
047D68 0200                A  5813    	DW	2
047D6A 00                  A  5814    	DB	0
047D6B 01                  A  5815    	DB	1
047D6C 0000                A  5816    	DW	0
047D6E 00                  A  5817    	DB	0
047D6F 0800                A  5818    	DW	8
047D71 00                  A  5819    	DB	0
047D72 00                  A  5820    	DB	0
047D73 B4                  A  5821    	DB	180
047D74 00                  A  5822    	DB	0
047D75 0900                A  5823    	DW	9
047D77 00                  A  5824    	DB	0
047D78 0500                A  5825    	DW	5
047D7A 00                  A  5826    	DB	0
047D7B 01                  A  5827    	DB	1
047D7C 0000                A  5828    	DW	0
047D7E 00                  A  5829    	DB	0
047D7F 0000                A  5830    	DW	0
047D81 00                  A  5831    	DB	0
047D82 00                  A  5832    	DB	0
047D83 B6                  A  5833    	DB	182
047D84 06                  A  5834    	DB	6
047D85 0900                A  5835    	DW	9
047D87 00                  A  5836    	DB	0
047D88 0800                A  5837    	DW	8
047D8A 00                  A  5838    	DB	0
047D8B 00                  A  5839    	DB	0
047D8C 0000                A  5840    	DW	0
047D8E 00                  A  5841    	DB	0
047D8F 0000                A  5842    	DW	0
047D91 00                  A  5843    	DB	0
047D92 00                  A  5844    	DB	0
047D93 F6                  A  5845    	DB	246
047D94 00                  A  5846    	DB	0
047D95 0900                A  5847    	DW	9
047D97 00                  A  5848    	DB	0
047D98 1100                A  5849    	DW	17
047D9A 00                  A  5850    	DB	0
047D9B 00                  A  5851    	DB	0
047D9C 0000                A  5852    	DW	0
047D9E 00                  A  5853    	DB	0
047D9F 0300                A  5854    	DW	3
047DA1 00                  A  5855    	DB	0
047DA2 00                  A  5856    	DB	0
047DA3 B0                  A  5857    	DB	176
047DA4 00                  A  5858    	DB	0
047DA5 0B00                A  5859    	DW	11
047DA7 00                  A  5860    	DB	0
047DA8 0000                A  5861    	DW	0
047DAA 00                  A  5862    	DB	0
047DAB 00                  A  5863    	DB	0
047DAC 0000                A  5864    	DW	0
047DAE 00                  A  5865    	DB	0
047DAF 0000                A  5866    	DW	0
047DB1 00                  A  5867    	DB	0
047DB2 00                  A  5868    	DB	0
047DB3 B6                  A  5869    	DB	182
047DB4 06                  A  5870    	DB	6
047DB5 0200                A  5871    	DW	2
047DB7 00                  A  5872    	DB	0
047DB8 0000                A  5873    	DW	0
047DBA 00                  A  5874    	DB	0
047DBB 01                  A  5875    	DB	1
047DBC 0800                A  5876    	DW	8
047DBE 00                  A  5877    	DB	0
047DBF 0000                A  5878    	DW	0
047DC1 00                  A  5879    	DB	0
047DC2 00                  A  5880    	DB	0
047DC3 B4                  A  5881    	DB	180
047DC4 00                  A  5882    	DB	0
047DC5 0500                A  5883    	DW	5
047DC7 00                  A  5884    	DB	0
047DC8 0000                A  5885    	DW	0
047DCA 00                  A  5886    	DB	0
047DCB 01                  A  5887    	DB	1
047DCC 0000                A  5888    	DW	0
047DCE 00                  A  5889    	DB	0
047DCF 0000                A  5890    	DW	0
047DD1 00                  A  5891    	DB	0
047DD2 00                  A  5892    	DB	0
047DD3 B6                  A  5893    	DB	182
047DD4 06                  A  5894    	DB	6
047DD5 0800                A  5895    	DW	8
047DD7 00                  A  5896    	DB	0
047DD8 0000                A  5897    	DW	0
047DDA 00                  A  5898    	DB	0
047DDB 00                  A  5899    	DB	0
047DDC 0000                A  5900    	DW	0
047DDE 00                  A  5901    	DB	0
047DDF 0000                A  5902    	DW	0
047DE1 00                  A  5903    	DB	0
047DE2 00                  A  5904    	DB	0
047DE3 F6                  A  5905    	DB	246
047DE4 00                  A  5906    	DB	0
047DE5 1100                A  5907    	DW	17
047DE7 00                  A  5908    	DB	0
047DE8 0000                A  5909    	DW	0
047DEA 00                  A  5910    	DB	0
047DEB 00                  A  5911    	DB	0
047DEC 0300                A  5912    	DW	3
047DEE 00                  A  5913    	DB	0
047DEF 0000                A  5914    	DW	0
047DF1 00                  A  5915    	DB	0
047DF2 00                  A  5916    	DB	0
047DF3 B0                  A  5917    	DB	176
047DF4 00                  A  5918    	DB	0
                           A  5919    .DEFINE "operands_or"
                           A  5920    .ALIAS "_operands_or"
                           A  5921    .CLASS 69
                           A  5922    .VALUE _operands_or
                           A  5923    .DIM 10
                           A  5924    .TAG "NONAME5"
                           A  5925    .TYPE 104
                           A  5926    .ENDEF
047DF5                     A  5927    _operands_otd2r:
047DF5 0000                A  5928    	DW	0
047DF7 00                  A  5929    	DB	0
047DF8 0000                A  5930    	DW	0
047DFA 00                  A  5931    	DB	0
047DFB 00                  A  5932    	DB	0
047DFC 0000                A  5933    	DW	0
047DFE 00                  A  5934    	DB	0
047DFF 0000                A  5935    	DW	0
047E01 00                  A  5936    	DB	0
047E02 ED                  A  5937    	DB	237
047E03 BC                  A  5938    	DB	188
047E04 06                  A  5939    	DB	6
                           A  5940    .DEFINE "operands_otd2r"
                           A  5941    .ALIAS "_operands_otd2r"
                           A  5942    .CLASS 69
                           A  5943    .VALUE _operands_otd2r
                           A  5944    .DIM 1
                           A  5945    .TAG "NONAME5"
                           A  5946    .TYPE 104
                           A  5947    .ENDEF
047E05                     A  5948    _operands_otdm:
047E05 0000                A  5949    	DW	0
047E07 00                  A  5950    	DB	0
047E08 0000                A  5951    	DW	0
047E0A 00                  A  5952    	DB	0
047E0B 00                  A  5953    	DB	0
047E0C 0000                A  5954    	DW	0
047E0E 00                  A  5955    	DB	0
047E0F 0000                A  5956    	DW	0
047E11 00                  A  5957    	DB	0
047E12 ED                  A  5958    	DB	237
047E13 8B                  A  5959    	DB	139
047E14 06                  A  5960    	DB	6
                           A  5961    .DEFINE "operands_otdm"
                           A  5962    .ALIAS "_operands_otdm"
                           A  5963    .CLASS 69
                           A  5964    .VALUE _operands_otdm
                           A  5965    .DIM 1
                           A  5966    .TAG "NONAME5"
                           A  5967    .TYPE 104
                           A  5968    .ENDEF
047E15                     A  5969    _operands_otdmr:
047E15 0000                A  5970    	DW	0
047E17 00                  A  5971    	DB	0
047E18 0000                A  5972    	DW	0
047E1A 00                  A  5973    	DB	0
047E1B 00                  A  5974    	DB	0
047E1C 0000                A  5975    	DW	0
047E1E 00                  A  5976    	DB	0
047E1F 0000                A  5977    	DW	0
047E21 00                  A  5978    	DB	0
047E22 ED                  A  5979    	DB	237
047E23 9B                  A  5980    	DB	155
047E24 06                  A  5981    	DB	6
                           A  5982    .DEFINE "operands_otdmr"
                           A  5983    .ALIAS "_operands_otdmr"
                           A  5984    .CLASS 69
                           A  5985    .VALUE _operands_otdmr
                           A  5986    .DIM 1
                           A  5987    .TAG "NONAME5"
                           A  5988    .TYPE 104
                           A  5989    .ENDEF
047E25                     A  5990    _operands_otdr:
047E25 0000                A  5991    	DW	0
047E27 00                  A  5992    	DB	0
047E28 0000                A  5993    	DW	0
047E2A 00                  A  5994    	DB	0
047E2B 00                  A  5995    	DB	0
047E2C 0000                A  5996    	DW	0
047E2E 00                  A  5997    	DB	0
047E2F 0000                A  5998    	DW	0
047E31 00                  A  5999    	DB	0
047E32 ED                  A  6000    	DB	237
047E33 BB                  A  6001    	DB	187
047E34 06                  A  6002    	DB	6
                           A  6003    .DEFINE "operands_otdr"
                           A  6004    .ALIAS "_operands_otdr"
                           A  6005    .CLASS 69
                           A  6006    .VALUE _operands_otdr
                           A  6007    .DIM 1
                           A  6008    .TAG "NONAME5"
                           A  6009    .TYPE 104
                           A  6010    .ENDEF
047E35                     A  6011    _operands_otdrx:
047E35 0000                A  6012    	DW	0
047E37 00                  A  6013    	DB	0
047E38 0000                A  6014    	DW	0
047E3A 00                  A  6015    	DB	0
047E3B 00                  A  6016    	DB	0
047E3C 0000                A  6017    	DW	0
047E3E 00                  A  6018    	DB	0
047E3F 0000                A  6019    	DW	0
047E41 00                  A  6020    	DB	0
047E42 ED                  A  6021    	DB	237
047E43 CB                  A  6022    	DB	203
047E44 06                  A  6023    	DB	6
                           A  6024    .DEFINE "operands_otdrx"
                           A  6025    .ALIAS "_operands_otdrx"
                           A  6026    .CLASS 69
                           A  6027    .VALUE _operands_otdrx
                           A  6028    .DIM 1
                           A  6029    .TAG "NONAME5"
                           A  6030    .TYPE 104
                           A  6031    .ENDEF
047E45                     A  6032    _operands_oti2r:
047E45 0000                A  6033    	DW	0
047E47 00                  A  6034    	DB	0
047E48 0000                A  6035    	DW	0
047E4A 00                  A  6036    	DB	0
047E4B 00                  A  6037    	DB	0
047E4C 0000                A  6038    	DW	0
047E4E 00                  A  6039    	DB	0
047E4F 0000                A  6040    	DW	0
047E51 00                  A  6041    	DB	0
047E52 ED                  A  6042    	DB	237
047E53 B4                  A  6043    	DB	180
047E54 06                  A  6044    	DB	6
                           A  6045    .DEFINE "operands_oti2r"
                           A  6046    .ALIAS "_operands_oti2r"
                           A  6047    .CLASS 69
                           A  6048    .VALUE _operands_oti2r
                           A  6049    .DIM 1
                           A  6050    .TAG "NONAME5"
                           A  6051    .TYPE 104
                           A  6052    .ENDEF
047E55                     A  6053    _operands_otim:
047E55 0000                A  6054    	DW	0
047E57 00                  A  6055    	DB	0
047E58 0000                A  6056    	DW	0
047E5A 00                  A  6057    	DB	0
047E5B 00                  A  6058    	DB	0
047E5C 0000                A  6059    	DW	0
047E5E 00                  A  6060    	DB	0
047E5F 0000                A  6061    	DW	0
047E61 00                  A  6062    	DB	0
047E62 ED                  A  6063    	DB	237
047E63 83                  A  6064    	DB	131
047E64 06                  A  6065    	DB	6
                           A  6066    .DEFINE "operands_otim"
                           A  6067    .ALIAS "_operands_otim"
                           A  6068    .CLASS 69
                           A  6069    .VALUE _operands_otim
                           A  6070    .DIM 1
                           A  6071    .TAG "NONAME5"
                           A  6072    .TYPE 104
                           A  6073    .ENDEF
047E65                     A  6074    _operands_otimr:
047E65 0000                A  6075    	DW	0
047E67 00                  A  6076    	DB	0
047E68 0000                A  6077    	DW	0
047E6A 00                  A  6078    	DB	0
047E6B 00                  A  6079    	DB	0
047E6C 0000                A  6080    	DW	0
047E6E 00                  A  6081    	DB	0
047E6F 0000                A  6082    	DW	0
047E71 00                  A  6083    	DB	0
047E72 ED                  A  6084    	DB	237
047E73 93                  A  6085    	DB	147
047E74 06                  A  6086    	DB	6
                           A  6087    .DEFINE "operands_otimr"
                           A  6088    .ALIAS "_operands_otimr"
                           A  6089    .CLASS 69
                           A  6090    .VALUE _operands_otimr
                           A  6091    .DIM 1
                           A  6092    .TAG "NONAME5"
                           A  6093    .TYPE 104
                           A  6094    .ENDEF
047E75                     A  6095    _operands_otir:
047E75 0000                A  6096    	DW	0
047E77 00                  A  6097    	DB	0
047E78 0000                A  6098    	DW	0
047E7A 00                  A  6099    	DB	0
047E7B 00                  A  6100    	DB	0
047E7C 0000                A  6101    	DW	0
047E7E 00                  A  6102    	DB	0
047E7F 0000                A  6103    	DW	0
047E81 00                  A  6104    	DB	0
047E82 ED                  A  6105    	DB	237
047E83 B3                  A  6106    	DB	179
047E84 06                  A  6107    	DB	6
                           A  6108    .DEFINE "operands_otir"
                           A  6109    .ALIAS "_operands_otir"
                           A  6110    .CLASS 69
                           A  6111    .VALUE _operands_otir
                           A  6112    .DIM 1
                           A  6113    .TAG "NONAME5"
                           A  6114    .TYPE 104
                           A  6115    .ENDEF
047E85                     A  6116    _operands_otirx:
047E85 0000                A  6117    	DW	0
047E87 00                  A  6118    	DB	0
047E88 0000                A  6119    	DW	0
047E8A 00                  A  6120    	DB	0
047E8B 00                  A  6121    	DB	0
047E8C 0000                A  6122    	DW	0
047E8E 00                  A  6123    	DB	0
047E8F 0000                A  6124    	DW	0
047E91 00                  A  6125    	DB	0
047E92 ED                  A  6126    	DB	237
047E93 C3                  A  6127    	DB	195
047E94 06                  A  6128    	DB	6
                           A  6129    .DEFINE "operands_otirx"
                           A  6130    .ALIAS "_operands_otirx"
                           A  6131    .CLASS 69
                           A  6132    .VALUE _operands_otirx
                           A  6133    .DIM 1
                           A  6134    .TAG "NONAME5"
                           A  6135    .TYPE 104
                           A  6136    .ENDEF
047E95                     A  6137    _operands_out:
047E95 1A00                A  6138    	DW	26
047E97 00                  A  6139    	DB	0
047E98 1100                A  6140    	DW	17
047E9A 00                  A  6141    	DB	0
047E9B 00                  A  6142    	DB	0
047E9C 0000                A  6143    	DW	0
047E9E 00                  A  6144    	DB	0
047E9F 0200                A  6145    	DW	2
047EA1 00                  A  6146    	DB	0
047EA2 ED                  A  6147    	DB	237
047EA3 41                  A  6148    	DB	65
047EA4 00                  A  6149    	DB	0
047EA5 1B00                A  6150    	DW	27
047EA7 00                  A  6151    	DB	0
047EA8 1100                A  6152    	DW	17
047EAA 00                  A  6153    	DB	0
047EAB 00                  A  6154    	DB	0
047EAC 0000                A  6155    	DW	0
047EAE 00                  A  6156    	DB	0
047EAF 0200                A  6157    	DW	2
047EB1 00                  A  6158    	DB	0
047EB2 ED                  A  6159    	DB	237
047EB3 41                  A  6160    	DB	65
047EB4 00                  A  6161    	DB	0
047EB5 1900                A  6162    	DW	25
047EB7 00                  A  6163    	DB	0
047EB8 0900                A  6164    	DW	9
047EBA 00                  A  6165    	DB	0
047EBB 00                  A  6166    	DB	0
047EBC 0000                A  6167    	DW	0
047EBE 00                  A  6168    	DB	0
047EBF 0000                A  6169    	DW	0
047EC1 00                  A  6170    	DB	0
047EC2 00                  A  6171    	DB	0
047EC3 D3                  A  6172    	DB	211
047EC4 00                  A  6173    	DB	0
                           A  6174    .DEFINE "operands_out"
                           A  6175    .ALIAS "_operands_out"
                           A  6176    .CLASS 69
                           A  6177    .VALUE _operands_out
                           A  6178    .DIM 3
                           A  6179    .TAG "NONAME5"
                           A  6180    .TYPE 104
                           A  6181    .ENDEF
047EC5                     A  6182    _operands_out0:
047EC5 1900                A  6183    	DW	25
047EC7 00                  A  6184    	DB	0
047EC8 1100                A  6185    	DW	17
047ECA 00                  A  6186    	DB	0
047ECB 00                  A  6187    	DB	0
047ECC 0000                A  6188    	DW	0
047ECE 00                  A  6189    	DB	0
047ECF 0200                A  6190    	DW	2
047ED1 00                  A  6191    	DB	0
047ED2 ED                  A  6192    	DB	237
047ED3 01                  A  6193    	DB	1
047ED4 00                  A  6194    	DB	0
                           A  6195    .DEFINE "operands_out0"
                           A  6196    .ALIAS "_operands_out0"
                           A  6197    .CLASS 69
                           A  6198    .VALUE _operands_out0
                           A  6199    .DIM 1
                           A  6200    .TAG "NONAME5"
                           A  6201    .TYPE 104
                           A  6202    .ENDEF
047ED5                     A  6203    _operands_outd:
047ED5 0000                A  6204    	DW	0
047ED7 00                  A  6205    	DB	0
047ED8 0000                A  6206    	DW	0
047EDA 00                  A  6207    	DB	0
047EDB 00                  A  6208    	DB	0
047EDC 0000                A  6209    	DW	0
047EDE 00                  A  6210    	DB	0
047EDF 0000                A  6211    	DW	0
047EE1 00                  A  6212    	DB	0
047EE2 ED                  A  6213    	DB	237
047EE3 AB                  A  6214    	DB	171
047EE4 06                  A  6215    	DB	6
                           A  6216    .DEFINE "operands_outd"
                           A  6217    .ALIAS "_operands_outd"
                           A  6218    .CLASS 69
                           A  6219    .VALUE _operands_outd
                           A  6220    .DIM 1
                           A  6221    .TAG "NONAME5"
                           A  6222    .TYPE 104
                           A  6223    .ENDEF
047EE5                     A  6224    _operands_outd2:
047EE5 0000                A  6225    	DW	0
047EE7 00                  A  6226    	DB	0
047EE8 0000                A  6227    	DW	0
047EEA 00                  A  6228    	DB	0
047EEB 00                  A  6229    	DB	0
047EEC 0000                A  6230    	DW	0
047EEE 00                  A  6231    	DB	0
047EEF 0000                A  6232    	DW	0
047EF1 00                  A  6233    	DB	0
047EF2 ED                  A  6234    	DB	237
047EF3 AC                  A  6235    	DB	172
047EF4 06                  A  6236    	DB	6
                           A  6237    .DEFINE "operands_outd2"
                           A  6238    .ALIAS "_operands_outd2"
                           A  6239    .CLASS 69
                           A  6240    .VALUE _operands_outd2
                           A  6241    .DIM 1
                           A  6242    .TAG "NONAME5"
                           A  6243    .TYPE 104
                           A  6244    .ENDEF
047EF5                     A  6245    _operands_outi:
047EF5 0000                A  6246    	DW	0
047EF7 00                  A  6247    	DB	0
047EF8 0000                A  6248    	DW	0
047EFA 00                  A  6249    	DB	0
047EFB 00                  A  6250    	DB	0
047EFC 0000                A  6251    	DW	0
047EFE 00                  A  6252    	DB	0
047EFF 0000                A  6253    	DW	0
047F01 00                  A  6254    	DB	0
047F02 ED                  A  6255    	DB	237
047F03 A3                  A  6256    	DB	163
047F04 06                  A  6257    	DB	6
                           A  6258    .DEFINE "operands_outi"
                           A  6259    .ALIAS "_operands_outi"
                           A  6260    .CLASS 69
                           A  6261    .VALUE _operands_outi
                           A  6262    .DIM 1
                           A  6263    .TAG "NONAME5"
                           A  6264    .TYPE 104
                           A  6265    .ENDEF
047F05                     A  6266    _operands_outi2:
047F05 0000                A  6267    	DW	0
047F07 00                  A  6268    	DB	0
047F08 0000                A  6269    	DW	0
047F0A 00                  A  6270    	DB	0
047F0B 00                  A  6271    	DB	0
047F0C 0000                A  6272    	DW	0
047F0E 00                  A  6273    	DB	0
047F0F 0000                A  6274    	DW	0
047F11 00                  A  6275    	DB	0
047F12 ED                  A  6276    	DB	237
047F13 A4                  A  6277    	DB	164
047F14 06                  A  6278    	DB	6
                           A  6279    .DEFINE "operands_outi2"
                           A  6280    .ALIAS "_operands_outi2"
                           A  6281    .CLASS 69
                           A  6282    .VALUE _operands_outi2
                           A  6283    .DIM 1
                           A  6284    .TAG "NONAME5"
                           A  6285    .TYPE 104
                           A  6286    .ENDEF
047F15                     A  6287    _operands_pea:
047F15 2100                A  6288    	DW	33
047F17 00                  A  6289    	DB	0
047F18 0000                A  6290    	DW	0
047F1A 00                  A  6291    	DB	0
047F1B 00                  A  6292    	DB	0
047F1C 0000                A  6293    	DW	0
047F1E 00                  A  6294    	DB	0
047F1F 0000                A  6295    	DW	0
047F21 00                  A  6296    	DB	0
047F22 ED                  A  6297    	DB	237
047F23 65                  A  6298    	DB	101
047F24 06                  A  6299    	DB	6
047F25 2200                A  6300    	DW	34
047F27 00                  A  6301    	DB	0
047F28 0000                A  6302    	DW	0
047F2A 00                  A  6303    	DB	0
047F2B 00                  A  6304    	DB	0
047F2C 0000                A  6305    	DW	0
047F2E 00                  A  6306    	DB	0
047F2F 0000                A  6307    	DW	0
047F31 00                  A  6308    	DB	0
047F32 ED                  A  6309    	DB	237
047F33 66                  A  6310    	DB	102
047F34 06                  A  6311    	DB	6
                           A  6312    .DEFINE "operands_pea"
                           A  6313    .ALIAS "_operands_pea"
                           A  6314    .CLASS 69
                           A  6315    .VALUE _operands_pea
                           A  6316    .DIM 2
                           A  6317    .TAG "NONAME5"
                           A  6318    .TYPE 104
                           A  6319    .ENDEF
047F35                     A  6320    _operands_pop:
047F35 1600                A  6321    	DW	22
047F37 00                  A  6322    	DB	0
047F38 0000                A  6323    	DW	0
047F3A 00                  A  6324    	DB	0
047F3B 00                  A  6325    	DB	0
047F3C 0000                A  6326    	DW	0
047F3E 00                  A  6327    	DB	0
047F3F 0000                A  6328    	DW	0
047F41 00                  A  6329    	DB	0
047F42 00                  A  6330    	DB	0
047F43 F1                  A  6331    	DB	241
047F44 06                  A  6332    	DB	6
047F45 0300                A  6333    	DW	3
047F47 00                  A  6334    	DB	0
047F48 0000                A  6335    	DW	0
047F4A 00                  A  6336    	DB	0
047F4B 01                  A  6337    	DB	1
047F4C 0000                A  6338    	DW	0
047F4E 00                  A  6339    	DB	0
047F4F 0000                A  6340    	DW	0
047F51 00                  A  6341    	DB	0
047F52 00                  A  6342    	DB	0
047F53 E1                  A  6343    	DB	225
047F54 06                  A  6344    	DB	6
047F55 0C00                A  6345    	DW	12
047F57 00                  A  6346    	DB	0
047F58 0000                A  6347    	DW	0
047F5A 00                  A  6348    	DB	0
047F5B 00                  A  6349    	DB	0
047F5C 0400                A  6350    	DW	4
047F5E 00                  A  6351    	DB	0
047F5F 0000                A  6352    	DW	0
047F61 00                  A  6353    	DB	0
047F62 00                  A  6354    	DB	0
047F63 C1                  A  6355    	DB	193
047F64 06                  A  6356    	DB	6
                           A  6357    .DEFINE "operands_pop"
                           A  6358    .ALIAS "_operands_pop"
                           A  6359    .CLASS 69
                           A  6360    .VALUE _operands_pop
                           A  6361    .DIM 3
                           A  6362    .TAG "NONAME5"
                           A  6363    .TYPE 104
                           A  6364    .ENDEF
047F65                     A  6365    _operands_push:
047F65 1600                A  6366    	DW	22
047F67 00                  A  6367    	DB	0
047F68 0000                A  6368    	DW	0
047F6A 00                  A  6369    	DB	0
047F6B 00                  A  6370    	DB	0
047F6C 0000                A  6371    	DW	0
047F6E 00                  A  6372    	DB	0
047F6F 0000                A  6373    	DW	0
047F71 00                  A  6374    	DB	0
047F72 00                  A  6375    	DB	0
047F73 F5                  A  6376    	DB	245
047F74 06                  A  6377    	DB	6
047F75 0300                A  6378    	DW	3
047F77 00                  A  6379    	DB	0
047F78 0000                A  6380    	DW	0
047F7A 00                  A  6381    	DB	0
047F7B 01                  A  6382    	DB	1
047F7C 0000                A  6383    	DW	0
047F7E 00                  A  6384    	DB	0
047F7F 0000                A  6385    	DW	0
047F81 00                  A  6386    	DB	0
047F82 00                  A  6387    	DB	0
047F83 E5                  A  6388    	DB	229
047F84 06                  A  6389    	DB	6
047F85 0C00                A  6390    	DW	12
047F87 00                  A  6391    	DB	0
047F88 0000                A  6392    	DW	0
047F8A 00                  A  6393    	DB	0
047F8B 00                  A  6394    	DB	0
047F8C 0400                A  6395    	DW	4
047F8E 00                  A  6396    	DB	0
047F8F 0000                A  6397    	DW	0
047F91 00                  A  6398    	DB	0
047F92 00                  A  6399    	DB	0
047F93 C5                  A  6400    	DB	197
047F94 06                  A  6401    	DB	6
                           A  6402    .DEFINE "operands_push"
                           A  6403    .ALIAS "_operands_push"
                           A  6404    .CLASS 69
                           A  6405    .VALUE _operands_push
                           A  6406    .DIM 3
                           A  6407    .TAG "NONAME5"
                           A  6408    .TYPE 104
                           A  6409    .ENDEF
047F95                     A  6410    _operands_res:
047F95 1500                A  6411    	DW	21
047F97 00                  A  6412    	DB	0
047F98 0B00                A  6413    	DW	11
047F9A 00                  A  6414    	DB	0
047F9B 00                  A  6415    	DB	0
047F9C 0200                A  6416    	DW	2
047F9E 00                  A  6417    	DB	0
047F9F 0000                A  6418    	DW	0
047FA1 00                  A  6419    	DB	0
047FA2 CB                  A  6420    	DB	203
047FA3 86                  A  6421    	DB	134
047FA4 06                  A  6422    	DB	6
047FA5 1500                A  6423    	DW	21
047FA7 00                  A  6424    	DB	0
047FA8 0500                A  6425    	DW	5
047FAA 00                  A  6426    	DB	0
047FAB 01                  A  6427    	DB	1
047FAC 0200                A  6428    	DW	2
047FAE 00                  A  6429    	DB	0
047FAF 0000                A  6430    	DW	0
047FB1 00                  A  6431    	DB	0
047FB2 CB                  A  6432    	DB	203
047FB3 86                  A  6433    	DB	134
047FB4 06                  A  6434    	DB	6
047FB5 1500                A  6435    	DW	21
047FB7 00                  A  6436    	DB	0
047FB8 1100                A  6437    	DW	17
047FBA 00                  A  6438    	DB	0
047FBB 00                  A  6439    	DB	0
047FBC 0C00                A  6440    	DW	12
047FBE 00                  A  6441    	DB	0
047FBF 0300                A  6442    	DW	3
047FC1 00                  A  6443    	DB	0
047FC2 CB                  A  6444    	DB	203
047FC3 80                  A  6445    	DB	128
047FC4 00                  A  6446    	DB	0
                           A  6447    .DEFINE "operands_res"
                           A  6448    .ALIAS "_operands_res"
                           A  6449    .CLASS 69
                           A  6450    .VALUE _operands_res
                           A  6451    .DIM 3
                           A  6452    .TAG "NONAME5"
                           A  6453    .TYPE 104
                           A  6454    .ENDEF
047FC5                     A  6455    _operands_ret:
047FC5 0000                A  6456    	DW	0
047FC7 00                  A  6457    	DB	0
047FC8 0000                A  6458    	DW	0
047FCA 00                  A  6459    	DB	0
047FCB 00                  A  6460    	DB	0
047FCC 0000                A  6461    	DW	0
047FCE 00                  A  6462    	DB	0
047FCF 0000                A  6463    	DW	0
047FD1 00                  A  6464    	DB	0
047FD2 00                  A  6465    	DB	0
047FD3 C9                  A  6466    	DB	201
047FD4 0A                  A  6467    	DB	10
047FD5 0100                A  6468    	DW	1
047FD7 00                  A  6469    	DB	0
047FD8 0000                A  6470    	DW	0
047FDA 00                  A  6471    	DB	0
047FDB 00                  A  6472    	DB	0
047FDC 0700                A  6473    	DW	7
047FDE 00                  A  6474    	DB	0
047FDF 0000                A  6475    	DW	0
047FE1 00                  A  6476    	DB	0
047FE2 00                  A  6477    	DB	0
047FE3 C0                  A  6478    	DB	192
047FE4 0A                  A  6479    	DB	10
                           A  6480    .DEFINE "operands_ret"
                           A  6481    .ALIAS "_operands_ret"
                           A  6482    .CLASS 69
                           A  6483    .VALUE _operands_ret
                           A  6484    .DIM 2
                           A  6485    .TAG "NONAME5"
                           A  6486    .TYPE 104
                           A  6487    .ENDEF
047FE5                     A  6488    _operands_reti:
047FE5 0000                A  6489    	DW	0
047FE7 00                  A  6490    	DB	0
047FE8 0000                A  6491    	DW	0
047FEA 00                  A  6492    	DB	0
047FEB 00                  A  6493    	DB	0
047FEC 0000                A  6494    	DW	0
047FEE 00                  A  6495    	DB	0
047FEF 0000                A  6496    	DW	0
047FF1 00                  A  6497    	DB	0
047FF2 ED                  A  6498    	DB	237
047FF3 4D                  A  6499    	DB	77
047FF4 0A                  A  6500    	DB	10
                           A  6501    .DEFINE "operands_reti"
                           A  6502    .ALIAS "_operands_reti"
                           A  6503    .CLASS 69
                           A  6504    .VALUE _operands_reti
                           A  6505    .DIM 1
                           A  6506    .TAG "NONAME5"
                           A  6507    .TYPE 104
                           A  6508    .ENDEF
047FF5                     A  6509    _operands_retn:
047FF5 0000                A  6510    	DW	0
047FF7 00                  A  6511    	DB	0
047FF8 0000                A  6512    	DW	0
047FFA 00                  A  6513    	DB	0
047FFB 00                  A  6514    	DB	0
047FFC 0000                A  6515    	DW	0
047FFE 00                  A  6516    	DB	0
047FFF 0000                A  6517    	DW	0
048001 00                  A  6518    	DB	0
048002 ED                  A  6519    	DB	237
048003 45                  A  6520    	DB	69
048004 0A                  A  6521    	DB	10
                           A  6522    .DEFINE "operands_retn"
                           A  6523    .ALIAS "_operands_retn"
                           A  6524    .CLASS 69
                           A  6525    .VALUE _operands_retn
                           A  6526    .DIM 1
                           A  6527    .TAG "NONAME5"
                           A  6528    .TYPE 104
                           A  6529    .ENDEF
048005                     A  6530    _operands_rl:
048005 0B00                A  6531    	DW	11
048007 00                  A  6532    	DB	0
048008 0000                A  6533    	DW	0
04800A 00                  A  6534    	DB	0
04800B 00                  A  6535    	DB	0
04800C 0000                A  6536    	DW	0
04800E 00                  A  6537    	DB	0
04800F 0000                A  6538    	DW	0
048011 00                  A  6539    	DB	0
048012 CB                  A  6540    	DB	203
048013 16                  A  6541    	DB	22
048014 06                  A  6542    	DB	6
048015 0500                A  6543    	DW	5
048017 00                  A  6544    	DB	0
048018 0000                A  6545    	DW	0
04801A 00                  A  6546    	DB	0
04801B 01                  A  6547    	DB	1
04801C 0000                A  6548    	DW	0
04801E 00                  A  6549    	DB	0
04801F 0000                A  6550    	DW	0
048021 00                  A  6551    	DB	0
048022 CB                  A  6552    	DB	203
048023 16                  A  6553    	DB	22
048024 06                  A  6554    	DB	6
048025 1100                A  6555    	DW	17
048027 00                  A  6556    	DB	0
048028 0000                A  6557    	DW	0
04802A 00                  A  6558    	DB	0
04802B 00                  A  6559    	DB	0
04802C 0300                A  6560    	DW	3
04802E 00                  A  6561    	DB	0
04802F 0000                A  6562    	DW	0
048031 00                  A  6563    	DB	0
048032 CB                  A  6564    	DB	203
048033 10                  A  6565    	DB	16
048034 00                  A  6566    	DB	0
                           A  6567    .DEFINE "operands_rl"
                           A  6568    .ALIAS "_operands_rl"
                           A  6569    .CLASS 69
                           A  6570    .VALUE _operands_rl
                           A  6571    .DIM 3
                           A  6572    .TAG "NONAME5"
                           A  6573    .TYPE 104
                           A  6574    .ENDEF
048035                     A  6575    _operands_rla:
048035 0000                A  6576    	DW	0
048037 00                  A  6577    	DB	0
048038 0000                A  6578    	DW	0
04803A 00                  A  6579    	DB	0
04803B 00                  A  6580    	DB	0
04803C 0000                A  6581    	DW	0
04803E 00                  A  6582    	DB	0
04803F 0000                A  6583    	DW	0
048041 00                  A  6584    	DB	0
048042 00                  A  6585    	DB	0
048043 17                  A  6586    	DB	23
048044 00                  A  6587    	DB	0
                           A  6588    .DEFINE "operands_rla"
                           A  6589    .ALIAS "_operands_rla"
                           A  6590    .CLASS 69
                           A  6591    .VALUE _operands_rla
                           A  6592    .DIM 1
                           A  6593    .TAG "NONAME5"
                           A  6594    .TYPE 104
                           A  6595    .ENDEF
048045                     A  6596    _operands_rlc:
048045 0B00                A  6597    	DW	11
048047 00                  A  6598    	DB	0
048048 0000                A  6599    	DW	0
04804A 00                  A  6600    	DB	0
04804B 00                  A  6601    	DB	0
04804C 0000                A  6602    	DW	0
04804E 00                  A  6603    	DB	0
04804F 0000                A  6604    	DW	0
048051 00                  A  6605    	DB	0
048052 CB                  A  6606    	DB	203
048053 06                  A  6607    	DB	6
048054 06                  A  6608    	DB	6
048055 0500                A  6609    	DW	5
048057 00                  A  6610    	DB	0
048058 0000                A  6611    	DW	0
04805A 00                  A  6612    	DB	0
04805B 01                  A  6613    	DB	1
04805C 0000                A  6614    	DW	0
04805E 00                  A  6615    	DB	0
04805F 0000                A  6616    	DW	0
048061 00                  A  6617    	DB	0
048062 CB                  A  6618    	DB	203
048063 06                  A  6619    	DB	6
048064 06                  A  6620    	DB	6
048065 1100                A  6621    	DW	17
048067 00                  A  6622    	DB	0
048068 0000                A  6623    	DW	0
04806A 00                  A  6624    	DB	0
04806B 00                  A  6625    	DB	0
04806C 0300                A  6626    	DW	3
04806E 00                  A  6627    	DB	0
04806F 0000                A  6628    	DW	0
048071 00                  A  6629    	DB	0
048072 CB                  A  6630    	DB	203
048073 00                  A  6631    	DB	0
048074 00                  A  6632    	DB	0
                           A  6633    .DEFINE "operands_rlc"
                           A  6634    .ALIAS "_operands_rlc"
                           A  6635    .CLASS 69
                           A  6636    .VALUE _operands_rlc
                           A  6637    .DIM 3
                           A  6638    .TAG "NONAME5"
                           A  6639    .TYPE 104
                           A  6640    .ENDEF
048075                     A  6641    _operands_rlca:
048075 0000                A  6642    	DW	0
048077 00                  A  6643    	DB	0
048078 0000                A  6644    	DW	0
04807A 00                  A  6645    	DB	0
04807B 00                  A  6646    	DB	0
04807C 0000                A  6647    	DW	0
04807E 00                  A  6648    	DB	0
04807F 0000                A  6649    	DW	0
048081 00                  A  6650    	DB	0
048082 00                  A  6651    	DB	0
048083 07                  A  6652    	DB	7
048084 00                  A  6653    	DB	0
                           A  6654    .DEFINE "operands_rlca"
                           A  6655    .ALIAS "_operands_rlca"
                           A  6656    .CLASS 69
                           A  6657    .VALUE _operands_rlca
                           A  6658    .DIM 1
                           A  6659    .TAG "NONAME5"
                           A  6660    .TYPE 104
                           A  6661    .ENDEF
048085                     A  6662    _operands_rld:
048085 0000                A  6663    	DW	0
048087 00                  A  6664    	DB	0
048088 0000                A  6665    	DW	0
04808A 00                  A  6666    	DB	0
04808B 00                  A  6667    	DB	0
04808C 0000                A  6668    	DW	0
04808E 00                  A  6669    	DB	0
04808F 0000                A  6670    	DW	0
048091 00                  A  6671    	DB	0
048092 ED                  A  6672    	DB	237
048093 6F                  A  6673    	DB	111
048094 00                  A  6674    	DB	0
                           A  6675    .DEFINE "operands_rld"
                           A  6676    .ALIAS "_operands_rld"
                           A  6677    .CLASS 69
                           A  6678    .VALUE _operands_rld
                           A  6679    .DIM 1
                           A  6680    .TAG "NONAME5"
                           A  6681    .TYPE 104
                           A  6682    .ENDEF
048095                     A  6683    _operands_rr:
048095 0B00                A  6684    	DW	11
048097 00                  A  6685    	DB	0
048098 0000                A  6686    	DW	0
04809A 00                  A  6687    	DB	0
04809B 00                  A  6688    	DB	0
04809C 0000                A  6689    	DW	0
04809E 00                  A  6690    	DB	0
04809F 0000                A  6691    	DW	0
0480A1 00                  A  6692    	DB	0
0480A2 CB                  A  6693    	DB	203
0480A3 1E                  A  6694    	DB	30
0480A4 06                  A  6695    	DB	6
0480A5 0500                A  6696    	DW	5
0480A7 00                  A  6697    	DB	0
0480A8 0000                A  6698    	DW	0
0480AA 00                  A  6699    	DB	0
0480AB 01                  A  6700    	DB	1
0480AC 0000                A  6701    	DW	0
0480AE 00                  A  6702    	DB	0
0480AF 0000                A  6703    	DW	0
0480B1 00                  A  6704    	DB	0
0480B2 CB                  A  6705    	DB	203
0480B3 1E                  A  6706    	DB	30
0480B4 06                  A  6707    	DB	6
0480B5 1100                A  6708    	DW	17
0480B7 00                  A  6709    	DB	0
0480B8 0000                A  6710    	DW	0
0480BA 00                  A  6711    	DB	0
0480BB 00                  A  6712    	DB	0
0480BC 0300                A  6713    	DW	3
0480BE 00                  A  6714    	DB	0
0480BF 0000                A  6715    	DW	0
0480C1 00                  A  6716    	DB	0
0480C2 CB                  A  6717    	DB	203
0480C3 18                  A  6718    	DB	24
0480C4 00                  A  6719    	DB	0
                           A  6720    .DEFINE "operands_rr"
                           A  6721    .ALIAS "_operands_rr"
                           A  6722    .CLASS 69
                           A  6723    .VALUE _operands_rr
                           A  6724    .DIM 3
                           A  6725    .TAG "NONAME5"
                           A  6726    .TYPE 104
                           A  6727    .ENDEF
0480C5                     A  6728    _operands_rra:
0480C5 0000                A  6729    	DW	0
0480C7 00                  A  6730    	DB	0
0480C8 0000                A  6731    	DW	0
0480CA 00                  A  6732    	DB	0
0480CB 00                  A  6733    	DB	0
0480CC 0000                A  6734    	DW	0
0480CE 00                  A  6735    	DB	0
0480CF 0000                A  6736    	DW	0
0480D1 00                  A  6737    	DB	0
0480D2 00                  A  6738    	DB	0
0480D3 1F                  A  6739    	DB	31
0480D4 00                  A  6740    	DB	0
                           A  6741    .DEFINE "operands_rra"
                           A  6742    .ALIAS "_operands_rra"
                           A  6743    .CLASS 69
                           A  6744    .VALUE _operands_rra
                           A  6745    .DIM 1
                           A  6746    .TAG "NONAME5"
                           A  6747    .TYPE 104
                           A  6748    .ENDEF
0480D5                     A  6749    _operands_rrc:
0480D5 0B00                A  6750    	DW	11
0480D7 00                  A  6751    	DB	0
0480D8 0000                A  6752    	DW	0
0480DA 00                  A  6753    	DB	0
0480DB 00                  A  6754    	DB	0
0480DC 0000                A  6755    	DW	0
0480DE 00                  A  6756    	DB	0
0480DF 0000                A  6757    	DW	0
0480E1 00                  A  6758    	DB	0
0480E2 CB                  A  6759    	DB	203
0480E3 0E                  A  6760    	DB	14
0480E4 06                  A  6761    	DB	6
0480E5 0500                A  6762    	DW	5
0480E7 00                  A  6763    	DB	0
0480E8 0000                A  6764    	DW	0
0480EA 00                  A  6765    	DB	0
0480EB 01                  A  6766    	DB	1
0480EC 0000                A  6767    	DW	0
0480EE 00                  A  6768    	DB	0
0480EF 0000                A  6769    	DW	0
0480F1 00                  A  6770    	DB	0
0480F2 CB                  A  6771    	DB	203
0480F3 0E                  A  6772    	DB	14
0480F4 06                  A  6773    	DB	6
0480F5 1100                A  6774    	DW	17
0480F7 00                  A  6775    	DB	0
0480F8 0000                A  6776    	DW	0
0480FA 00                  A  6777    	DB	0
0480FB 00                  A  6778    	DB	0
0480FC 0300                A  6779    	DW	3
0480FE 00                  A  6780    	DB	0
0480FF 0000                A  6781    	DW	0
048101 00                  A  6782    	DB	0
048102 CB                  A  6783    	DB	203
048103 08                  A  6784    	DB	8
048104 00                  A  6785    	DB	0
                           A  6786    .DEFINE "operands_rrc"
                           A  6787    .ALIAS "_operands_rrc"
                           A  6788    .CLASS 69
                           A  6789    .VALUE _operands_rrc
                           A  6790    .DIM 3
                           A  6791    .TAG "NONAME5"
                           A  6792    .TYPE 104
                           A  6793    .ENDEF
048105                     A  6794    _operands_rrca:
048105 0000                A  6795    	DW	0
048107 00                  A  6796    	DB	0
048108 0000                A  6797    	DW	0
04810A 00                  A  6798    	DB	0
04810B 00                  A  6799    	DB	0
04810C 0000                A  6800    	DW	0
04810E 00                  A  6801    	DB	0
04810F 0000                A  6802    	DW	0
048111 00                  A  6803    	DB	0
048112 00                  A  6804    	DB	0
048113 0F                  A  6805    	DB	15
048114 00                  A  6806    	DB	0
                           A  6807    .DEFINE "operands_rrca"
                           A  6808    .ALIAS "_operands_rrca"
                           A  6809    .CLASS 69
                           A  6810    .VALUE _operands_rrca
                           A  6811    .DIM 1
                           A  6812    .TAG "NONAME5"
                           A  6813    .TYPE 104
                           A  6814    .ENDEF
048115                     A  6815    _operands_rrd:
048115 0000                A  6816    	DW	0
048117 00                  A  6817    	DB	0
048118 0000                A  6818    	DW	0
04811A 00                  A  6819    	DB	0
04811B 00                  A  6820    	DB	0
04811C 0000                A  6821    	DW	0
04811E 00                  A  6822    	DB	0
04811F 0000                A  6823    	DW	0
048121 00                  A  6824    	DB	0
048122 ED                  A  6825    	DB	237
048123 67                  A  6826    	DB	103
048124 00                  A  6827    	DB	0
                           A  6828    .DEFINE "operands_rrd"
                           A  6829    .ALIAS "_operands_rrd"
                           A  6830    .CLASS 69
                           A  6831    .VALUE _operands_rrd
                           A  6832    .DIM 1
                           A  6833    .TAG "NONAME5"
                           A  6834    .TYPE 104
                           A  6835    .ENDEF
048125                     A  6836    _operands_rsmix:
048125 0000                A  6837    	DW	0
048127 00                  A  6838    	DB	0
048128 0000                A  6839    	DW	0
04812A 00                  A  6840    	DB	0
04812B 00                  A  6841    	DB	0
04812C 0000                A  6842    	DW	0
04812E 00                  A  6843    	DB	0
04812F 0000                A  6844    	DW	0
048131 00                  A  6845    	DB	0
048132 ED                  A  6846    	DB	237
048133 7E                  A  6847    	DB	126
048134 00                  A  6848    	DB	0
                           A  6849    .DEFINE "operands_rsmix"
                           A  6850    .ALIAS "_operands_rsmix"
                           A  6851    .CLASS 69
                           A  6852    .VALUE _operands_rsmix
                           A  6853    .DIM 1
                           A  6854    .TAG "NONAME5"
                           A  6855    .TYPE 104
                           A  6856    .ENDEF
048135                     A  6857    _operands_rst:
048135 0800                A  6858    	DW	8
048137 00                  A  6859    	DB	0
048138 0000                A  6860    	DW	0
04813A 00                  A  6861    	DB	0
04813B 00                  A  6862    	DB	0
04813C 0B00                A  6863    	DW	11
04813E 00                  A  6864    	DB	0
04813F 0000                A  6865    	DW	0
048141 00                  A  6866    	DB	0
048142 00                  A  6867    	DB	0
048143 C7                  A  6868    	DB	199
048144 06                  A  6869    	DB	6
                           A  6870    .DEFINE "operands_rst"
                           A  6871    .ALIAS "_operands_rst"
                           A  6872    .CLASS 69
                           A  6873    .VALUE _operands_rst
                           A  6874    .DIM 1
                           A  6875    .TAG "NONAME5"
                           A  6876    .TYPE 104
                           A  6877    .ENDEF
048145                     A  6878    _operands_sbc:
048145 0900                A  6879    	DW	9
048147 00                  A  6880    	DB	0
048148 0B00                A  6881    	DW	11
04814A 00                  A  6882    	DB	0
04814B 00                  A  6883    	DB	0
04814C 0000                A  6884    	DW	0
04814E 00                  A  6885    	DB	0
04814F 0000                A  6886    	DW	0
048151 00                  A  6887    	DB	0
048152 00                  A  6888    	DB	0
048153 9E                  A  6889    	DB	158
048154 06                  A  6890    	DB	6
048155 0900                A  6891    	DW	9
048157 00                  A  6892    	DB	0
048158 0200                A  6893    	DW	2
04815A 00                  A  6894    	DB	0
04815B 01                  A  6895    	DB	1
04815C 0000                A  6896    	DW	0
04815E 00                  A  6897    	DB	0
04815F 0800                A  6898    	DW	8
048161 00                  A  6899    	DB	0
048162 00                  A  6900    	DB	0
048163 9C                  A  6901    	DB	156
048164 00                  A  6902    	DB	0
048165 0900                A  6903    	DW	9
048167 00                  A  6904    	DB	0
048168 0500                A  6905    	DW	5
04816A 00                  A  6906    	DB	0
04816B 01                  A  6907    	DB	1
04816C 0000                A  6908    	DW	0
04816E 00                  A  6909    	DB	0
04816F 0000                A  6910    	DW	0
048171 00                  A  6911    	DB	0
048172 00                  A  6912    	DB	0
048173 9E                  A  6913    	DB	158
048174 06                  A  6914    	DB	6
048175 0900                A  6915    	DW	9
048177 00                  A  6916    	DB	0
048178 0800                A  6917    	DW	8
04817A 00                  A  6918    	DB	0
04817B 00                  A  6919    	DB	0
04817C 0000                A  6920    	DW	0
04817E 00                  A  6921    	DB	0
04817F 0000                A  6922    	DW	0
048181 00                  A  6923    	DB	0
048182 00                  A  6924    	DB	0
048183 DE                  A  6925    	DB	222
048184 00                  A  6926    	DB	0
048185 0900                A  6927    	DW	9
048187 00                  A  6928    	DB	0
048188 1100                A  6929    	DW	17
04818A 00                  A  6930    	DB	0
04818B 00                  A  6931    	DB	0
04818C 0000                A  6932    	DW	0
04818E 00                  A  6933    	DB	0
04818F 0300                A  6934    	DW	3
048191 00                  A  6935    	DB	0
048192 00                  A  6936    	DB	0
048193 98                  A  6937    	DB	152
048194 00                  A  6938    	DB	0
048195 0A00                A  6939    	DW	10
048197 00                  A  6940    	DB	0
048198 0C00                A  6941    	DW	12
04819A 00                  A  6942    	DB	0
04819B 00                  A  6943    	DB	0
04819C 0000                A  6944    	DW	0
04819E 00                  A  6945    	DB	0
04819F 0400                A  6946    	DW	4
0481A1 00                  A  6947    	DB	0
0481A2 ED                  A  6948    	DB	237
0481A3 42                  A  6949    	DB	66
0481A4 06                  A  6950    	DB	6
0481A5 0A00                A  6951    	DW	10
0481A7 00                  A  6952    	DB	0
0481A8 0F00                A  6953    	DW	15
0481AA 00                  A  6954    	DB	0
0481AB 00                  A  6955    	DB	0
0481AC 0000                A  6956    	DW	0
0481AE 00                  A  6957    	DB	0
0481AF 0000                A  6958    	DW	0
0481B1 00                  A  6959    	DB	0
0481B2 ED                  A  6960    	DB	237
0481B3 72                  A  6961    	DB	114
0481B4 06                  A  6962    	DB	6
                           A  6963    .DEFINE "operands_sbc"
                           A  6964    .ALIAS "_operands_sbc"
                           A  6965    .CLASS 69
                           A  6966    .VALUE _operands_sbc
                           A  6967    .DIM 7
                           A  6968    .TAG "NONAME5"
                           A  6969    .TYPE 104
                           A  6970    .ENDEF
0481B5                     A  6971    _operands_scf:
0481B5 0000                A  6972    	DW	0
0481B7 00                  A  6973    	DB	0
0481B8 0000                A  6974    	DW	0
0481BA 00                  A  6975    	DB	0
0481BB 00                  A  6976    	DB	0
0481BC 0000                A  6977    	DW	0
0481BE 00                  A  6978    	DB	0
0481BF 0000                A  6979    	DW	0
0481C1 00                  A  6980    	DB	0
0481C2 00                  A  6981    	DB	0
0481C3 37                  A  6982    	DB	55
0481C4 00                  A  6983    	DB	0
                           A  6984    .DEFINE "operands_scf"
                           A  6985    .ALIAS "_operands_scf"
                           A  6986    .CLASS 69
                           A  6987    .VALUE _operands_scf
                           A  6988    .DIM 1
                           A  6989    .TAG "NONAME5"
                           A  6990    .TYPE 104
                           A  6991    .ENDEF
0481C5                     A  6992    _operands_set:
0481C5 1500                A  6993    	DW	21
0481C7 00                  A  6994    	DB	0
0481C8 0B00                A  6995    	DW	11
0481CA 00                  A  6996    	DB	0
0481CB 00                  A  6997    	DB	0
0481CC 0200                A  6998    	DW	2
0481CE 00                  A  6999    	DB	0
0481CF 0000                A  7000    	DW	0
0481D1 00                  A  7001    	DB	0
0481D2 CB                  A  7002    	DB	203
0481D3 C6                  A  7003    	DB	198
0481D4 06                  A  7004    	DB	6
0481D5 1500                A  7005    	DW	21
0481D7 00                  A  7006    	DB	0
0481D8 0500                A  7007    	DW	5
0481DA 00                  A  7008    	DB	0
0481DB 01                  A  7009    	DB	1
0481DC 0200                A  7010    	DW	2
0481DE 00                  A  7011    	DB	0
0481DF 0000                A  7012    	DW	0
0481E1 00                  A  7013    	DB	0
0481E2 CB                  A  7014    	DB	203
0481E3 C6                  A  7015    	DB	198
0481E4 06                  A  7016    	DB	6
0481E5 1500                A  7017    	DW	21
0481E7 00                  A  7018    	DB	0
0481E8 1100                A  7019    	DW	17
0481EA 00                  A  7020    	DB	0
0481EB 00                  A  7021    	DB	0
0481EC 0C00                A  7022    	DW	12
0481EE 00                  A  7023    	DB	0
0481EF 0300                A  7024    	DW	3
0481F1 00                  A  7025    	DB	0
0481F2 CB                  A  7026    	DB	203
0481F3 C0                  A  7027    	DB	192
0481F4 00                  A  7028    	DB	0
                           A  7029    .DEFINE "operands_set"
                           A  7030    .ALIAS "_operands_set"
                           A  7031    .CLASS 69
                           A  7032    .VALUE _operands_set
                           A  7033    .DIM 3
                           A  7034    .TAG "NONAME5"
                           A  7035    .TYPE 104
                           A  7036    .ENDEF
0481F5                     A  7037    _operands_sla:
0481F5 0B00                A  7038    	DW	11
0481F7 00                  A  7039    	DB	0
0481F8 0000                A  7040    	DW	0
0481FA 00                  A  7041    	DB	0
0481FB 00                  A  7042    	DB	0
0481FC 0000                A  7043    	DW	0
0481FE 00                  A  7044    	DB	0
0481FF 0000                A  7045    	DW	0
048201 00                  A  7046    	DB	0
048202 CB                  A  7047    	DB	203
048203 26                  A  7048    	DB	38
048204 06                  A  7049    	DB	6
048205 0500                A  7050    	DW	5
048207 00                  A  7051    	DB	0
048208 0000                A  7052    	DW	0
04820A 00                  A  7053    	DB	0
04820B 01                  A  7054    	DB	1
04820C 0000                A  7055    	DW	0
04820E 00                  A  7056    	DB	0
04820F 0000                A  7057    	DW	0
048211 00                  A  7058    	DB	0
048212 CB                  A  7059    	DB	203
048213 26                  A  7060    	DB	38
048214 06                  A  7061    	DB	6
048215 1100                A  7062    	DW	17
048217 00                  A  7063    	DB	0
048218 0000                A  7064    	DW	0
04821A 00                  A  7065    	DB	0
04821B 00                  A  7066    	DB	0
04821C 0300                A  7067    	DW	3
04821E 00                  A  7068    	DB	0
04821F 0000                A  7069    	DW	0
048221 00                  A  7070    	DB	0
048222 CB                  A  7071    	DB	203
048223 20                  A  7072    	DB	32
048224 00                  A  7073    	DB	0
                           A  7074    .DEFINE "operands_sla"
                           A  7075    .ALIAS "_operands_sla"
                           A  7076    .CLASS 69
                           A  7077    .VALUE _operands_sla
                           A  7078    .DIM 3
                           A  7079    .TAG "NONAME5"
                           A  7080    .TYPE 104
                           A  7081    .ENDEF
048225                     A  7082    _operands_slp:
048225 0000                A  7083    	DW	0
048227 00                  A  7084    	DB	0
048228 0000                A  7085    	DW	0
04822A 00                  A  7086    	DB	0
04822B 00                  A  7087    	DB	0
04822C 0000                A  7088    	DW	0
04822E 00                  A  7089    	DB	0
04822F 0000                A  7090    	DW	0
048231 00                  A  7091    	DB	0
048232 ED                  A  7092    	DB	237
048233 76                  A  7093    	DB	118
048234 00                  A  7094    	DB	0
                           A  7095    .DEFINE "operands_slp"
                           A  7096    .ALIAS "_operands_slp"
                           A  7097    .CLASS 69
                           A  7098    .VALUE _operands_slp
                           A  7099    .DIM 1
                           A  7100    .TAG "NONAME5"
                           A  7101    .TYPE 104
                           A  7102    .ENDEF
048235                     A  7103    _operands_sra:
048235 0B00                A  7104    	DW	11
048237 00                  A  7105    	DB	0
048238 0000                A  7106    	DW	0
04823A 00                  A  7107    	DB	0
04823B 00                  A  7108    	DB	0
04823C 0000                A  7109    	DW	0
04823E 00                  A  7110    	DB	0
04823F 0000                A  7111    	DW	0
048241 00                  A  7112    	DB	0
048242 CB                  A  7113    	DB	203
048243 2E                  A  7114    	DB	46
048244 06                  A  7115    	DB	6
048245 0500                A  7116    	DW	5
048247 00                  A  7117    	DB	0
048248 0000                A  7118    	DW	0
04824A 00                  A  7119    	DB	0
04824B 01                  A  7120    	DB	1
04824C 0000                A  7121    	DW	0
04824E 00                  A  7122    	DB	0
04824F 0000                A  7123    	DW	0
048251 00                  A  7124    	DB	0
048252 CB                  A  7125    	DB	203
048253 2E                  A  7126    	DB	46
048254 06                  A  7127    	DB	6
048255 1100                A  7128    	DW	17
048257 00                  A  7129    	DB	0
048258 0000                A  7130    	DW	0
04825A 00                  A  7131    	DB	0
04825B 00                  A  7132    	DB	0
04825C 0300                A  7133    	DW	3
04825E 00                  A  7134    	DB	0
04825F 0000                A  7135    	DW	0
048261 00                  A  7136    	DB	0
048262 CB                  A  7137    	DB	203
048263 28                  A  7138    	DB	40
048264 00                  A  7139    	DB	0
                           A  7140    .DEFINE "operands_sra"
                           A  7141    .ALIAS "_operands_sra"
                           A  7142    .CLASS 69
                           A  7143    .VALUE _operands_sra
                           A  7144    .DIM 3
                           A  7145    .TAG "NONAME5"
                           A  7146    .TYPE 104
                           A  7147    .ENDEF
048265                     A  7148    _operands_srl:
048265 0B00                A  7149    	DW	11
048267 00                  A  7150    	DB	0
048268 0000                A  7151    	DW	0
04826A 00                  A  7152    	DB	0
04826B 00                  A  7153    	DB	0
04826C 0000                A  7154    	DW	0
04826E 00                  A  7155    	DB	0
04826F 0000                A  7156    	DW	0
048271 00                  A  7157    	DB	0
048272 CB                  A  7158    	DB	203
048273 3E                  A  7159    	DB	62
048274 06                  A  7160    	DB	6
048275 0500                A  7161    	DW	5
048277 00                  A  7162    	DB	0
048278 0000                A  7163    	DW	0
04827A 00                  A  7164    	DB	0
04827B 01                  A  7165    	DB	1
04827C 0000                A  7166    	DW	0
04827E 00                  A  7167    	DB	0
04827F 0000                A  7168    	DW	0
048281 00                  A  7169    	DB	0
048282 CB                  A  7170    	DB	203
048283 3E                  A  7171    	DB	62
048284 06                  A  7172    	DB	6
048285 1100                A  7173    	DW	17
048287 00                  A  7174    	DB	0
048288 0000                A  7175    	DW	0
04828A 00                  A  7176    	DB	0
04828B 00                  A  7177    	DB	0
04828C 0300                A  7178    	DW	3
04828E 00                  A  7179    	DB	0
04828F 0000                A  7180    	DW	0
048291 00                  A  7181    	DB	0
048292 CB                  A  7182    	DB	203
048293 38                  A  7183    	DB	56
048294 00                  A  7184    	DB	0
                           A  7185    .DEFINE "operands_srl"
                           A  7186    .ALIAS "_operands_srl"
                           A  7187    .CLASS 69
                           A  7188    .VALUE _operands_srl
                           A  7189    .DIM 3
                           A  7190    .TAG "NONAME5"
                           A  7191    .TYPE 104
                           A  7192    .ENDEF
048295                     A  7193    _operands_stmix:
048295 0000                A  7194    	DW	0
048297 00                  A  7195    	DB	0
048298 0000                A  7196    	DW	0
04829A 00                  A  7197    	DB	0
04829B 00                  A  7198    	DB	0
04829C 0000                A  7199    	DW	0
04829E 00                  A  7200    	DB	0
04829F 0000                A  7201    	DW	0
0482A1 00                  A  7202    	DB	0
0482A2 ED                  A  7203    	DB	237
0482A3 7D                  A  7204    	DB	125
0482A4 00                  A  7205    	DB	0
                           A  7206    .DEFINE "operands_stmix"
                           A  7207    .ALIAS "_operands_stmix"
                           A  7208    .CLASS 69
                           A  7209    .VALUE _operands_stmix
                           A  7210    .DIM 1
                           A  7211    .TAG "NONAME5"
                           A  7212    .TYPE 104
                           A  7213    .ENDEF
0482A5                     A  7214    _operands_sub:
0482A5 0900                A  7215    	DW	9
0482A7 00                  A  7216    	DB	0
0482A8 0B00                A  7217    	DW	11
0482AA 00                  A  7218    	DB	0
0482AB 00                  A  7219    	DB	0
0482AC 0000                A  7220    	DW	0
0482AE 00                  A  7221    	DB	0
0482AF 0000                A  7222    	DW	0
0482B1 00                  A  7223    	DB	0
0482B2 00                  A  7224    	DB	0
0482B3 96                  A  7225    	DB	150
0482B4 06                  A  7226    	DB	6
0482B5 0900                A  7227    	DW	9
0482B7 00                  A  7228    	DB	0
0482B8 0200                A  7229    	DW	2
0482BA 00                  A  7230    	DB	0
0482BB 01                  A  7231    	DB	1
0482BC 0000                A  7232    	DW	0
0482BE 00                  A  7233    	DB	0
0482BF 0800                A  7234    	DW	8
0482C1 00                  A  7235    	DB	0
0482C2 00                  A  7236    	DB	0
0482C3 94                  A  7237    	DB	148
0482C4 00                  A  7238    	DB	0
0482C5 0900                A  7239    	DW	9
0482C7 00                  A  7240    	DB	0
0482C8 0500                A  7241    	DW	5
0482CA 00                  A  7242    	DB	0
0482CB 01                  A  7243    	DB	1
0482CC 0000                A  7244    	DW	0
0482CE 00                  A  7245    	DB	0
0482CF 0000                A  7246    	DW	0
0482D1 00                  A  7247    	DB	0
0482D2 00                  A  7248    	DB	0
0482D3 96                  A  7249    	DB	150
0482D4 06                  A  7250    	DB	6
0482D5 0900                A  7251    	DW	9
0482D7 00                  A  7252    	DB	0
0482D8 0800                A  7253    	DW	8
0482DA 00                  A  7254    	DB	0
0482DB 00                  A  7255    	DB	0
0482DC 0000                A  7256    	DW	0
0482DE 00                  A  7257    	DB	0
0482DF 0000                A  7258    	DW	0
0482E1 00                  A  7259    	DB	0
0482E2 00                  A  7260    	DB	0
0482E3 D6                  A  7261    	DB	214
0482E4 00                  A  7262    	DB	0
0482E5 0900                A  7263    	DW	9
0482E7 00                  A  7264    	DB	0
0482E8 1100                A  7265    	DW	17
0482EA 00                  A  7266    	DB	0
0482EB 00                  A  7267    	DB	0
0482EC 0000                A  7268    	DW	0
0482EE 00                  A  7269    	DB	0
0482EF 0300                A  7270    	DW	3
0482F1 00                  A  7271    	DB	0
0482F2 00                  A  7272    	DB	0
0482F3 90                  A  7273    	DB	144
0482F4 00                  A  7274    	DB	0
0482F5 0B00                A  7275    	DW	11
0482F7 00                  A  7276    	DB	0
0482F8 0000                A  7277    	DW	0
0482FA 00                  A  7278    	DB	0
0482FB 00                  A  7279    	DB	0
0482FC 0000                A  7280    	DW	0
0482FE 00                  A  7281    	DB	0
0482FF 0000                A  7282    	DW	0
048301 00                  A  7283    	DB	0
048302 00                  A  7284    	DB	0
048303 96                  A  7285    	DB	150
048304 06                  A  7286    	DB	6
048305 0200                A  7287    	DW	2
048307 00                  A  7288    	DB	0
048308 0000                A  7289    	DW	0
04830A 00                  A  7290    	DB	0
04830B 01                  A  7291    	DB	1
04830C 0800                A  7292    	DW	8
04830E 00                  A  7293    	DB	0
04830F 0000                A  7294    	DW	0
048311 00                  A  7295    	DB	0
048312 00                  A  7296    	DB	0
048313 94                  A  7297    	DB	148
048314 00                  A  7298    	DB	0
048315 0500                A  7299    	DW	5
048317 00                  A  7300    	DB	0
048318 0000                A  7301    	DW	0
04831A 00                  A  7302    	DB	0
04831B 01                  A  7303    	DB	1
04831C 0000                A  7304    	DW	0
04831E 00                  A  7305    	DB	0
04831F 0000                A  7306    	DW	0
048321 00                  A  7307    	DB	0
048322 00                  A  7308    	DB	0
048323 96                  A  7309    	DB	150
048324 06                  A  7310    	DB	6
048325 0800                A  7311    	DW	8
048327 00                  A  7312    	DB	0
048328 0000                A  7313    	DW	0
04832A 00                  A  7314    	DB	0
04832B 00                  A  7315    	DB	0
04832C 0000                A  7316    	DW	0
04832E 00                  A  7317    	DB	0
04832F 0000                A  7318    	DW	0
048331 00                  A  7319    	DB	0
048332 00                  A  7320    	DB	0
048333 D6                  A  7321    	DB	214
048334 00                  A  7322    	DB	0
048335 1100                A  7323    	DW	17
048337 00                  A  7324    	DB	0
048338 0000                A  7325    	DW	0
04833A 00                  A  7326    	DB	0
04833B 00                  A  7327    	DB	0
04833C 0300                A  7328    	DW	3
04833E 00                  A  7329    	DB	0
04833F 0000                A  7330    	DW	0
048341 00                  A  7331    	DB	0
048342 00                  A  7332    	DB	0
048343 90                  A  7333    	DB	144
048344 00                  A  7334    	DB	0
                           A  7335    .DEFINE "operands_sub"
                           A  7336    .ALIAS "_operands_sub"
                           A  7337    .CLASS 69
                           A  7338    .VALUE _operands_sub
                           A  7339    .DIM 10
                           A  7340    .TAG "NONAME5"
                           A  7341    .TYPE 104
                           A  7342    .ENDEF
048345                     A  7343    _operands_tst:
048345 0900                A  7344    	DW	9
048347 00                  A  7345    	DB	0
048348 0B00                A  7346    	DW	11
04834A 00                  A  7347    	DB	0
04834B 00                  A  7348    	DB	0
04834C 0000                A  7349    	DW	0
04834E 00                  A  7350    	DB	0
04834F 0000                A  7351    	DW	0
048351 00                  A  7352    	DB	0
048352 ED                  A  7353    	DB	237
048353 34                  A  7354    	DB	52
048354 06                  A  7355    	DB	6
048355 0900                A  7356    	DW	9
048357 00                  A  7357    	DB	0
048358 0800                A  7358    	DW	8
04835A 00                  A  7359    	DB	0
04835B 00                  A  7360    	DB	0
04835C 0000                A  7361    	DW	0
04835E 00                  A  7362    	DB	0
04835F 0000                A  7363    	DW	0
048361 00                  A  7364    	DB	0
048362 ED                  A  7365    	DB	237
048363 64                  A  7366    	DB	100
048364 00                  A  7367    	DB	0
048365 0900                A  7368    	DW	9
048367 00                  A  7369    	DB	0
048368 1100                A  7370    	DW	17
04836A 00                  A  7371    	DB	0
04836B 00                  A  7372    	DB	0
04836C 0000                A  7373    	DW	0
04836E 00                  A  7374    	DB	0
04836F 0200                A  7375    	DW	2
048371 00                  A  7376    	DB	0
048372 ED                  A  7377    	DB	237
048373 04                  A  7378    	DB	4
048374 00                  A  7379    	DB	0
048375 0B00                A  7380    	DW	11
048377 00                  A  7381    	DB	0
048378 0000                A  7382    	DW	0
04837A 00                  A  7383    	DB	0
04837B 00                  A  7384    	DB	0
04837C 0000                A  7385    	DW	0
04837E 00                  A  7386    	DB	0
04837F 0000                A  7387    	DW	0
048381 00                  A  7388    	DB	0
048382 ED                  A  7389    	DB	237
048383 34                  A  7390    	DB	52
048384 06                  A  7391    	DB	6
048385 0800                A  7392    	DW	8
048387 00                  A  7393    	DB	0
048388 0000                A  7394    	DW	0
04838A 00                  A  7395    	DB	0
04838B 00                  A  7396    	DB	0
04838C 0000                A  7397    	DW	0
04838E 00                  A  7398    	DB	0
04838F 0000                A  7399    	DW	0
048391 00                  A  7400    	DB	0
048392 ED                  A  7401    	DB	237
048393 64                  A  7402    	DB	100
048394 00                  A  7403    	DB	0
048395 1100                A  7404    	DW	17
048397 00                  A  7405    	DB	0
048398 0000                A  7406    	DW	0
04839A 00                  A  7407    	DB	0
04839B 00                  A  7408    	DB	0
04839C 0200                A  7409    	DW	2
04839E 00                  A  7410    	DB	0
04839F 0000                A  7411    	DW	0
0483A1 00                  A  7412    	DB	0
0483A2 ED                  A  7413    	DB	237
0483A3 04                  A  7414    	DB	4
0483A4 00                  A  7415    	DB	0
                           A  7416    .DEFINE "operands_tst"
                           A  7417    .ALIAS "_operands_tst"
                           A  7418    .CLASS 69
                           A  7419    .VALUE _operands_tst
                           A  7420    .DIM 6
                           A  7421    .TAG "NONAME5"
                           A  7422    .TYPE 104
                           A  7423    .ENDEF
0483A5                     A  7424    _operands_tstio:
0483A5 0800                A  7425    	DW	8
0483A7 00                  A  7426    	DB	0
0483A8 0000                A  7427    	DW	0
0483AA 00                  A  7428    	DB	0
0483AB 00                  A  7429    	DB	0
0483AC 0000                A  7430    	DW	0
0483AE 00                  A  7431    	DB	0
0483AF 0000                A  7432    	DW	0
0483B1 00                  A  7433    	DB	0
0483B2 ED                  A  7434    	DB	237
0483B3 74                  A  7435    	DB	116
0483B4 00                  A  7436    	DB	0
                           A  7437    .DEFINE "operands_tstio"
                           A  7438    .ALIAS "_operands_tstio"
                           A  7439    .CLASS 69
                           A  7440    .VALUE _operands_tstio
                           A  7441    .DIM 1
                           A  7442    .TAG "NONAME5"
                           A  7443    .TYPE 104
                           A  7444    .ENDEF
0483B5                     A  7445    _operands_xor:
0483B5 0900                A  7446    	DW	9
0483B7 00                  A  7447    	DB	0
0483B8 0B00                A  7448    	DW	11
0483BA 00                  A  7449    	DB	0
0483BB 00                  A  7450    	DB	0
0483BC 0000                A  7451    	DW	0
0483BE 00                  A  7452    	DB	0
0483BF 0000                A  7453    	DW	0
0483C1 00                  A  7454    	DB	0
0483C2 00                  A  7455    	DB	0
0483C3 AE                  A  7456    	DB	174
0483C4 06                  A  7457    	DB	6
0483C5 0900                A  7458    	DW	9
0483C7 00                  A  7459    	DB	0
0483C8 0200                A  7460    	DW	2
0483CA 00                  A  7461    	DB	0
0483CB 01                  A  7462    	DB	1
0483CC 0000                A  7463    	DW	0
0483CE 00                  A  7464    	DB	0
0483CF 0800                A  7465    	DW	8
0483D1 00                  A  7466    	DB	0
0483D2 00                  A  7467    	DB	0
0483D3 AC                  A  7468    	DB	172
0483D4 00                  A  7469    	DB	0
0483D5 0900                A  7470    	DW	9
0483D7 00                  A  7471    	DB	0
0483D8 0500                A  7472    	DW	5
0483DA 00                  A  7473    	DB	0
0483DB 01                  A  7474    	DB	1
0483DC 0000                A  7475    	DW	0
0483DE 00                  A  7476    	DB	0
0483DF 0000                A  7477    	DW	0
0483E1 00                  A  7478    	DB	0
0483E2 00                  A  7479    	DB	0
0483E3 AE                  A  7480    	DB	174
0483E4 06                  A  7481    	DB	6
0483E5 0900                A  7482    	DW	9
0483E7 00                  A  7483    	DB	0
0483E8 0800                A  7484    	DW	8
0483EA 00                  A  7485    	DB	0
0483EB 00                  A  7486    	DB	0
0483EC 0000                A  7487    	DW	0
0483EE 00                  A  7488    	DB	0
0483EF 0000                A  7489    	DW	0
0483F1 00                  A  7490    	DB	0
0483F2 00                  A  7491    	DB	0
0483F3 EE                  A  7492    	DB	238
0483F4 00                  A  7493    	DB	0
0483F5 0900                A  7494    	DW	9
0483F7 00                  A  7495    	DB	0
0483F8 1100                A  7496    	DW	17
0483FA 00                  A  7497    	DB	0
0483FB 00                  A  7498    	DB	0
0483FC 0000                A  7499    	DW	0
0483FE 00                  A  7500    	DB	0
0483FF 0300                A  7501    	DW	3
048401 00                  A  7502    	DB	0
048402 00                  A  7503    	DB	0
048403 A8                  A  7504    	DB	168
048404 00                  A  7505    	DB	0
048405 0B00                A  7506    	DW	11
048407 00                  A  7507    	DB	0
048408 0000                A  7508    	DW	0
04840A 00                  A  7509    	DB	0
04840B 00                  A  7510    	DB	0
04840C 0000                A  7511    	DW	0
04840E 00                  A  7512    	DB	0
04840F 0000                A  7513    	DW	0
048411 00                  A  7514    	DB	0
048412 00                  A  7515    	DB	0
048413 AE                  A  7516    	DB	174
048414 06                  A  7517    	DB	6
048415 0200                A  7518    	DW	2
048417 00                  A  7519    	DB	0
048418 0000                A  7520    	DW	0
04841A 00                  A  7521    	DB	0
04841B 01                  A  7522    	DB	1
04841C 0800                A  7523    	DW	8
04841E 00                  A  7524    	DB	0
04841F 0000                A  7525    	DW	0
048421 00                  A  7526    	DB	0
048422 00                  A  7527    	DB	0
048423 AC                  A  7528    	DB	172
048424 00                  A  7529    	DB	0
048425 0500                A  7530    	DW	5
048427 00                  A  7531    	DB	0
048428 0000                A  7532    	DW	0
04842A 00                  A  7533    	DB	0
04842B 01                  A  7534    	DB	1
04842C 0000                A  7535    	DW	0
04842E 00                  A  7536    	DB	0
04842F 0000                A  7537    	DW	0
048431 00                  A  7538    	DB	0
048432 00                  A  7539    	DB	0
048433 AE                  A  7540    	DB	174
048434 06                  A  7541    	DB	6
048435 0800                A  7542    	DW	8
048437 00                  A  7543    	DB	0
048438 0000                A  7544    	DW	0
04843A 00                  A  7545    	DB	0
04843B 00                  A  7546    	DB	0
04843C 0000                A  7547    	DW	0
04843E 00                  A  7548    	DB	0
04843F 0000                A  7549    	DW	0
048441 00                  A  7550    	DB	0
048442 00                  A  7551    	DB	0
048443 EE                  A  7552    	DB	238
048444 00                  A  7553    	DB	0
048445 1100                A  7554    	DW	17
048447 00                  A  7555    	DB	0
048448 0000                A  7556    	DW	0
04844A 00                  A  7557    	DB	0
04844B 00                  A  7558    	DB	0
04844C 0300                A  7559    	DW	3
04844E 00                  A  7560    	DB	0
04844F 0000                A  7561    	DW	0
048451 00                  A  7562    	DB	0
048452 00                  A  7563    	DB	0
048453 A8                  A  7564    	DB	168
048454 00                  A  7565    	DB	0
                           A  7566    .DEFINE "operands_xor"
                           A  7567    .ALIAS "_operands_xor"
                           A  7568    .CLASS 69
                           A  7569    .VALUE _operands_xor
                           A  7570    .DIM 10
                           A  7571    .TAG "NONAME5"
                           A  7572    .TYPE 104
                           A  7573    .ENDEF
048455                     A  7574    _instructions:
048455 61                  A  7575    	DB	97
048456 64                  A  7576    	DB	100
048457 63                  A  7577    	DB	99
048458 00                  A  7578    	DB	0
048459 00                  A  7579    	DB	0
04845A 00                  A  7580    	DB	0
04845B 00                  A  7581    	DB	0
04845C 00                  A  7582    	DB	0
04845D 00                  A  7583    	DB	0
04845E 00                  A  7584    	DB	0
04845F 07                  A  7585    	DB	7
048460 E57204              A  7586    	DW24	_operands_adc
048463 0000                A  7587    	DW	0
048465 00                  A  7588    	DB	0
048466 61                  A  7589    	DB	97
048467 64                  A  7590    	DB	100
048468 64                  A  7591    	DB	100
048469 00                  A  7592    	DB	0
04846A 00                  A  7593    	DB	0
04846B 00                  A  7594    	DB	0
04846C 00                  A  7595    	DB	0
04846D 00                  A  7596    	DB	0
04846E 00                  A  7597    	DB	0
04846F 00                  A  7598    	DB	0
048470 09                  A  7599    	DB	9
048471 557304              A  7600    	DW24	_operands_add
048474 0000                A  7601    	DW	0
048476 00                  A  7602    	DB	0
048477 61                  A  7603    	DB	97
048478 6C                  A  7604    	DB	108
048479 69                  A  7605    	DB	105
04847A 67                  A  7606    	DB	103
04847B 6E                  A  7607    	DB	110
04847C 00                  A  7608    	DB	0
04847D 00                  A  7609    	DB	0
04847E 00                  A  7610    	DB	0
04847F 01                  A  7611    	DB	1
048480 00                  A  7612    	DB	0
048481 00                  A  7613    	DB	0
048482 000000              A  7614    	DW24	0
048485 0100                A  7615    	DW	1
048487 00                  A  7616    	DB	0
048488 61                  A  7617    	DB	97
048489 6E                  A  7618    	DB	110
04848A 64                  A  7619    	DB	100
04848B 00                  A  7620    	DB	0
04848C 00                  A  7621    	DB	0
04848D 00                  A  7622    	DB	0
04848E 00                  A  7623    	DB	0
04848F 00                  A  7624    	DB	0
048490 00                  A  7625    	DB	0
048491 00                  A  7626    	DB	0
048492 0A                  A  7627    	DB	10
048493 E57304              A  7628    	DW24	_operands_and
048496 0000                A  7629    	DW	0
048498 00                  A  7630    	DB	0
048499 61                  A  7631    	DB	97
04849A 73                  A  7632    	DB	115
04849B 63                  A  7633    	DB	99
04849C 69                  A  7634    	DB	105
04849D 69                  A  7635    	DB	105
04849E 00                  A  7636    	DB	0
04849F 00                  A  7637    	DB	0
0484A0 00                  A  7638    	DB	0
0484A1 01                  A  7639    	DB	1
0484A2 03                  A  7640    	DB	3
0484A3 00                  A  7641    	DB	0
0484A4 000000              A  7642    	DW24	0
0484A7 0200                A  7643    	DW	2
0484A9 00                  A  7644    	DB	0
0484AA 61                  A  7645    	DB	97
0484AB 73                  A  7646    	DB	115
0484AC 63                  A  7647    	DB	99
0484AD 69                  A  7648    	DB	105
0484AE 7A                  A  7649    	DB	122
0484AF 00                  A  7650    	DB	0
0484B0 00                  A  7651    	DB	0
0484B1 00                  A  7652    	DB	0
0484B2 01                  A  7653    	DB	1
0484B3 07                  A  7654    	DB	7
0484B4 00                  A  7655    	DB	0
0484B5 000000              A  7656    	DW24	0
0484B8 0200                A  7657    	DW	2
0484BA 00                  A  7658    	DB	0
0484BB 61                  A  7659    	DB	97
0484BC 73                  A  7660    	DB	115
0484BD 73                  A  7661    	DB	115
0484BE 75                  A  7662    	DB	117
0484BF 6D                  A  7663    	DB	109
0484C0 65                  A  7664    	DB	101
0484C1 00                  A  7665    	DB	0
0484C2 00                  A  7666    	DB	0
0484C3 01                  A  7667    	DB	1
0484C4 01                  A  7668    	DB	1
0484C5 00                  A  7669    	DB	0
0484C6 000000              A  7670    	DW24	0
0484C9 0300                A  7671    	DW	3
0484CB 00                  A  7672    	DB	0
0484CC 62                  A  7673    	DB	98
0484CD 69                  A  7674    	DB	105
0484CE 74                  A  7675    	DB	116
0484CF 00                  A  7676    	DB	0
0484D0 00                  A  7677    	DB	0
0484D1 00                  A  7678    	DB	0
0484D2 00                  A  7679    	DB	0
0484D3 00                  A  7680    	DB	0
0484D4 00                  A  7681    	DB	0
0484D5 00                  A  7682    	DB	0
0484D6 03                  A  7683    	DB	3
0484D7 857404              A  7684    	DW24	_operands_bit
0484DA 0000                A  7685    	DW	0
0484DC 00                  A  7686    	DB	0
0484DD 62                  A  7687    	DB	98
0484DE 6C                  A  7688    	DB	108
0484DF 6B                  A  7689    	DB	107
0484E0 62                  A  7690    	DB	98
0484E1 00                  A  7691    	DB	0
0484E2 00                  A  7692    	DB	0
0484E3 00                  A  7693    	DB	0
0484E4 00                  A  7694    	DB	0
0484E5 01                  A  7695    	DB	1
0484E6 0A                  A  7696    	DB	10
0484E7 00                  A  7697    	DB	0
0484E8 000000              A  7698    	DW24	0
0484EB 0200                A  7699    	DW	2
0484ED 00                  A  7700    	DB	0
0484EE 62                  A  7701    	DB	98
0484EF 6C                  A  7702    	DB	108
0484F0 6B                  A  7703    	DB	107
0484F1 6C                  A  7704    	DB	108
0484F2 00                  A  7705    	DB	0
0484F3 00                  A  7706    	DB	0
0484F4 00                  A  7707    	DB	0
0484F5 00                  A  7708    	DB	0
0484F6 01                  A  7709    	DB	1
0484F7 0D                  A  7710    	DB	13
0484F8 00                  A  7711    	DB	0
0484F9 000000              A  7712    	DW24	0
0484FC 0200                A  7713    	DW	2
0484FE 00                  A  7714    	DB	0
0484FF 62                  A  7715    	DB	98
048500 6C                  A  7716    	DB	108
048501 6B                  A  7717    	DB	107
048502 70                  A  7718    	DB	112
048503 00                  A  7719    	DB	0
048504 00                  A  7720    	DB	0
048505 00                  A  7721    	DB	0
048506 00                  A  7722    	DB	0
048507 01                  A  7723    	DB	1
048508 0C                  A  7724    	DB	12
048509 00                  A  7725    	DB	0
04850A 000000              A  7726    	DW24	0
04850D 0200                A  7727    	DW	2
04850F 00                  A  7728    	DB	0
048510 62                  A  7729    	DB	98
048511 6C                  A  7730    	DB	108
048512 6B                  A  7731    	DB	107
048513 77                  A  7732    	DB	119
048514 00                  A  7733    	DB	0
048515 00                  A  7734    	DB	0
048516 00                  A  7735    	DB	0
048517 00                  A  7736    	DB	0
048518 01                  A  7737    	DB	1
048519 0B                  A  7738    	DB	11
04851A 00                  A  7739    	DB	0
04851B 000000              A  7740    	DW24	0
04851E 0200                A  7741    	DW	2
048520 00                  A  7742    	DB	0
048521 62                  A  7743    	DB	98
048522 79                  A  7744    	DB	121
048523 74                  A  7745    	DB	116
048524 65                  A  7746    	DB	101
048525 00                  A  7747    	DB	0
048526 00                  A  7748    	DB	0
048527 00                  A  7749    	DB	0
048528 00                  A  7750    	DB	0
048529 01                  A  7751    	DB	1
04852A 03                  A  7752    	DB	3
04852B 00                  A  7753    	DB	0
04852C 000000              A  7754    	DW24	0
04852F 0200                A  7755    	DW	2
048531 00                  A  7756    	DB	0
048532 63                  A  7757    	DB	99
048533 61                  A  7758    	DB	97
048534 6C                  A  7759    	DB	108
048535 6C                  A  7760    	DB	108
048536 00                  A  7761    	DB	0
048537 00                  A  7762    	DB	0
048538 00                  A  7763    	DB	0
048539 00                  A  7764    	DB	0
04853A 00                  A  7765    	DB	0
04853B 00                  A  7766    	DB	0
04853C 02                  A  7767    	DB	2
04853D B57404              A  7768    	DW24	_operands_call
048540 0000                A  7769    	DW	0
048542 00                  A  7770    	DB	0
048543 63                  A  7771    	DB	99
048544 63                  A  7772    	DB	99
048545 66                  A  7773    	DB	102
048546 00                  A  7774    	DB	0
048547 00                  A  7775    	DB	0
048548 00                  A  7776    	DB	0
048549 00                  A  7777    	DB	0
04854A 00                  A  7778    	DB	0
04854B 00                  A  7779    	DB	0
04854C 00                  A  7780    	DB	0
04854D 01                  A  7781    	DB	1
04854E D57404              A  7782    	DW24	_operands_ccf
048551 0000                A  7783    	DW	0
048553 00                  A  7784    	DB	0
048554 63                  A  7785    	DB	99
048555 70                  A  7786    	DB	112
048556 00                  A  7787    	DB	0
048557 00                  A  7788    	DB	0
048558 00                  A  7789    	DB	0
048559 00                  A  7790    	DB	0
04855A 00                  A  7791    	DB	0
04855B 00                  A  7792    	DB	0
04855C 00                  A  7793    	DB	0
04855D 00                  A  7794    	DB	0
04855E 0A                  A  7795    	DB	10
04855F E57404              A  7796    	DW24	_operands_cp
048562 0000                A  7797    	DW	0
048564 00                  A  7798    	DB	0
048565 63                  A  7799    	DB	99
048566 70                  A  7800    	DB	112
048567 64                  A  7801    	DB	100
048568 00                  A  7802    	DB	0
048569 00                  A  7803    	DB	0
04856A 00                  A  7804    	DB	0
04856B 00                  A  7805    	DB	0
04856C 00                  A  7806    	DB	0
04856D 00                  A  7807    	DB	0
04856E 00                  A  7808    	DB	0
04856F 01                  A  7809    	DB	1
048570 857504              A  7810    	DW24	_operands_cpd
048573 0000                A  7811    	DW	0
048575 00                  A  7812    	DB	0
048576 63                  A  7813    	DB	99
048577 70                  A  7814    	DB	112
048578 64                  A  7815    	DB	100
048579 72                  A  7816    	DB	114
04857A 00                  A  7817    	DB	0
04857B 00                  A  7818    	DB	0
04857C 00                  A  7819    	DB	0
04857D 00                  A  7820    	DB	0
04857E 00                  A  7821    	DB	0
04857F 00                  A  7822    	DB	0
048580 01                  A  7823    	DB	1
048581 957504              A  7824    	DW24	_operands_cpdr
048584 0000                A  7825    	DW	0
048586 00                  A  7826    	DB	0
048587 63                  A  7827    	DB	99
048588 70                  A  7828    	DB	112
048589 69                  A  7829    	DB	105
04858A 00                  A  7830    	DB	0
04858B 00                  A  7831    	DB	0
04858C 00                  A  7832    	DB	0
04858D 00                  A  7833    	DB	0
04858E 00                  A  7834    	DB	0
04858F 00                  A  7835    	DB	0
048590 00                  A  7836    	DB	0
048591 01                  A  7837    	DB	1
048592 A57504              A  7838    	DW24	_operands_cpi
048595 0000                A  7839    	DW	0
048597 00                  A  7840    	DB	0
048598 63                  A  7841    	DB	99
048599 70                  A  7842    	DB	112
04859A 69                  A  7843    	DB	105
04859B 72                  A  7844    	DB	114
04859C 00                  A  7845    	DB	0
04859D 00                  A  7846    	DB	0
04859E 00                  A  7847    	DB	0
04859F 00                  A  7848    	DB	0
0485A0 00                  A  7849    	DB	0
0485A1 00                  A  7850    	DB	0
0485A2 01                  A  7851    	DB	1
0485A3 B57504              A  7852    	DW24	_operands_cpir
0485A6 0000                A  7853    	DW	0
0485A8 00                  A  7854    	DB	0
0485A9 63                  A  7855    	DB	99
0485AA 70                  A  7856    	DB	112
0485AB 6C                  A  7857    	DB	108
0485AC 00                  A  7858    	DB	0
0485AD 00                  A  7859    	DB	0
0485AE 00                  A  7860    	DB	0
0485AF 00                  A  7861    	DB	0
0485B0 00                  A  7862    	DB	0
0485B1 00                  A  7863    	DB	0
0485B2 00                  A  7864    	DB	0
0485B3 01                  A  7865    	DB	1
0485B4 C57504              A  7866    	DW24	_operands_cpl
0485B7 0000                A  7867    	DW	0
0485B9 00                  A  7868    	DB	0
0485BA 64                  A  7869    	DB	100
0485BB 61                  A  7870    	DB	97
0485BC 61                  A  7871    	DB	97
0485BD 00                  A  7872    	DB	0
0485BE 00                  A  7873    	DB	0
0485BF 00                  A  7874    	DB	0
0485C0 00                  A  7875    	DB	0
0485C1 00                  A  7876    	DB	0
0485C2 00                  A  7877    	DB	0
0485C3 00                  A  7878    	DB	0
0485C4 01                  A  7879    	DB	1
0485C5 D57504              A  7880    	DW24	_operands_daa
0485C8 0000                A  7881    	DW	0
0485CA 00                  A  7882    	DB	0
0485CB 64                  A  7883    	DB	100
0485CC 62                  A  7884    	DB	98
0485CD 00                  A  7885    	DB	0
0485CE 00                  A  7886    	DB	0
0485CF 00                  A  7887    	DB	0
0485D0 00                  A  7888    	DB	0
0485D1 00                  A  7889    	DB	0
0485D2 00                  A  7890    	DB	0
0485D3 01                  A  7891    	DB	1
0485D4 03                  A  7892    	DB	3
0485D5 00                  A  7893    	DB	0
0485D6 000000              A  7894    	DW24	0
0485D9 0200                A  7895    	DW	2
0485DB 00                  A  7896    	DB	0
0485DC 64                  A  7897    	DB	100
0485DD 65                  A  7898    	DB	101
0485DE 63                  A  7899    	DB	99
0485DF 00                  A  7900    	DB	0
0485E0 00                  A  7901    	DB	0
0485E1 00                  A  7902    	DB	0
0485E2 00                  A  7903    	DB	0
0485E3 00                  A  7904    	DB	0
0485E4 00                  A  7905    	DB	0
0485E5 00                  A  7906    	DB	0
0485E6 07                  A  7907    	DB	7
0485E7 E57504              A  7908    	DW24	_operands_dec
0485EA 0000                A  7909    	DW	0
0485EC 00                  A  7910    	DB	0
0485ED 64                  A  7911    	DB	100
0485EE 65                  A  7912    	DB	101
0485EF 66                  A  7913    	DB	102
0485F0 62                  A  7914    	DB	98
0485F1 00                  A  7915    	DB	0
0485F2 00                  A  7916    	DB	0
0485F3 00                  A  7917    	DB	0
0485F4 00                  A  7918    	DB	0
0485F5 01                  A  7919    	DB	1
0485F6 03                  A  7920    	DB	3
0485F7 00                  A  7921    	DB	0
0485F8 000000              A  7922    	DW24	0
0485FB 0200                A  7923    	DW	2
0485FD 00                  A  7924    	DB	0
0485FE 64                  A  7925    	DB	100
0485FF 65                  A  7926    	DB	101
048600 66                  A  7927    	DB	102
048601 73                  A  7928    	DB	115
048602 00                  A  7929    	DB	0
048603 00                  A  7930    	DB	0
048604 00                  A  7931    	DB	0
048605 00                  A  7932    	DB	0
048606 01                  A  7933    	DB	1
048607 04                  A  7934    	DB	4
048608 00                  A  7935    	DB	0
048609 000000              A  7936    	DW24	0
04860C 0200                A  7937    	DW	2
04860E 00                  A  7938    	DB	0
04860F 64                  A  7939    	DB	100
048610 65                  A  7940    	DB	101
048611 66                  A  7941    	DB	102
048612 77                  A  7942    	DB	119
048613 00                  A  7943    	DB	0
048614 00                  A  7944    	DB	0
048615 00                  A  7945    	DB	0
048616 00                  A  7946    	DB	0
048617 01                  A  7947    	DB	1
048618 05                  A  7948    	DB	5
048619 00                  A  7949    	DB	0
04861A 000000              A  7950    	DW24	0
04861D 0200                A  7951    	DW	2
04861F 00                  A  7952    	DB	0
048620 64                  A  7953    	DB	100
048621 69                  A  7954    	DB	105
048622 00                  A  7955    	DB	0
048623 00                  A  7956    	DB	0
048624 00                  A  7957    	DB	0
048625 00                  A  7958    	DB	0
048626 00                  A  7959    	DB	0
048627 00                  A  7960    	DB	0
048628 00                  A  7961    	DB	0
048629 00                  A  7962    	DB	0
04862A 01                  A  7963    	DB	1
04862B 557604              A  7964    	DW24	_operands_di
04862E 0000                A  7965    	DW	0
048630 00                  A  7966    	DB	0
048631 64                  A  7967    	DB	100
048632 6A                  A  7968    	DB	106
048633 6E                  A  7969    	DB	110
048634 7A                  A  7970    	DB	122
048635 00                  A  7971    	DB	0
048636 00                  A  7972    	DB	0
048637 00                  A  7973    	DB	0
048638 00                  A  7974    	DB	0
048639 00                  A  7975    	DB	0
04863A 00                  A  7976    	DB	0
04863B 01                  A  7977    	DB	1
04863C 657604              A  7978    	DW24	_operands_djnz
04863F 0000                A  7979    	DW	0
048641 00                  A  7980    	DB	0
048642 64                  A  7981    	DB	100
048643 77                  A  7982    	DB	119
048644 32                  A  7983    	DB	50
048645 34                  A  7984    	DB	52
048646 00                  A  7985    	DB	0
048647 00                  A  7986    	DB	0
048648 00                  A  7987    	DB	0
048649 00                  A  7988    	DB	0
04864A 01                  A  7989    	DB	1
04864B 06                  A  7990    	DB	6
04864C 00                  A  7991    	DB	0
04864D 000000              A  7992    	DW24	0
048650 0200                A  7993    	DW	2
048652 00                  A  7994    	DB	0
048653 64                  A  7995    	DB	100
048654 73                  A  7996    	DB	115
048655 00                  A  7997    	DB	0
048656 00                  A  7998    	DB	0
048657 00                  A  7999    	DB	0
048658 00                  A  8000    	DB	0
048659 00                  A  8001    	DB	0
04865A 00                  A  8002    	DB	0
04865B 01                  A  8003    	DB	1
04865C 04                  A  8004    	DB	4
04865D 00                  A  8005    	DB	0
04865E 000000              A  8006    	DW24	0
048661 0200                A  8007    	DW	2
048663 00                  A  8008    	DB	0
048664 64                  A  8009    	DB	100
048665 77                  A  8010    	DB	119
048666 00                  A  8011    	DB	0
048667 00                  A  8012    	DB	0
048668 00                  A  8013    	DB	0
048669 00                  A  8014    	DB	0
04866A 00                  A  8015    	DB	0
04866B 00                  A  8016    	DB	0
04866C 01                  A  8017    	DB	1
04866D 05                  A  8018    	DB	5
04866E 00                  A  8019    	DB	0
04866F 000000              A  8020    	DW24	0
048672 0200                A  8021    	DW	2
048674 00                  A  8022    	DB	0
048675 65                  A  8023    	DB	101
048676 69                  A  8024    	DB	105
048677 00                  A  8025    	DB	0
048678 00                  A  8026    	DB	0
048679 00                  A  8027    	DB	0
04867A 00                  A  8028    	DB	0
04867B 00                  A  8029    	DB	0
04867C 00                  A  8030    	DB	0
04867D 00                  A  8031    	DB	0
04867E 00                  A  8032    	DB	0
04867F 01                  A  8033    	DB	1
048680 757604              A  8034    	DW24	_operands_ei
048683 0000                A  8035    	DW	0
048685 00                  A  8036    	DB	0
048686 65                  A  8037    	DB	101
048687 71                  A  8038    	DB	113
048688 75                  A  8039    	DB	117
048689 00                  A  8040    	DB	0
04868A 00                  A  8041    	DB	0
04868B 00                  A  8042    	DB	0
04868C 00                  A  8043    	DB	0
04868D 00                  A  8044    	DB	0
04868E 01                  A  8045    	DB	1
04868F 08                  A  8046    	DB	8
048690 00                  A  8047    	DB	0
048691 000000              A  8048    	DW24	0
048694 0100                A  8049    	DW	1
048696 00                  A  8050    	DB	0
048697 65                  A  8051    	DB	101
048698 78                  A  8052    	DB	120
048699 00                  A  8053    	DB	0
04869A 00                  A  8054    	DB	0
04869B 00                  A  8055    	DB	0
04869C 00                  A  8056    	DB	0
04869D 00                  A  8057    	DB	0
04869E 00                  A  8058    	DB	0
04869F 00                  A  8059    	DB	0
0486A0 00                  A  8060    	DB	0
0486A1 04                  A  8061    	DB	4
0486A2 857604              A  8062    	DW24	_operands_ex
0486A5 0000                A  8063    	DW	0
0486A7 00                  A  8064    	DB	0
0486A8 65                  A  8065    	DB	101
0486A9 78                  A  8066    	DB	120
0486AA 78                  A  8067    	DB	120
0486AB 00                  A  8068    	DB	0
0486AC 00                  A  8069    	DB	0
0486AD 00                  A  8070    	DB	0
0486AE 00                  A  8071    	DB	0
0486AF 00                  A  8072    	DB	0
0486B0 00                  A  8073    	DB	0
0486B1 00                  A  8074    	DB	0
0486B2 01                  A  8075    	DB	1
0486B3 C57604              A  8076    	DW24	_operands_exx
0486B6 0000                A  8077    	DW	0
0486B8 00                  A  8078    	DB	0
0486B9 68                  A  8079    	DB	104
0486BA 61                  A  8080    	DB	97
0486BB 6C                  A  8081    	DB	108
0486BC 74                  A  8082    	DB	116
0486BD 00                  A  8083    	DB	0
0486BE 00                  A  8084    	DB	0
0486BF 00                  A  8085    	DB	0
0486C0 00                  A  8086    	DB	0
0486C1 00                  A  8087    	DB	0
0486C2 00                  A  8088    	DB	0
0486C3 01                  A  8089    	DB	1
0486C4 D57604              A  8090    	DW24	_operands_halt
0486C7 0000                A  8091    	DW	0
0486C9 00                  A  8092    	DB	0
0486CA 69                  A  8093    	DB	105
0486CB 6D                  A  8094    	DB	109
0486CC 00                  A  8095    	DB	0
0486CD 00                  A  8096    	DB	0
0486CE 00                  A  8097    	DB	0
0486CF 00                  A  8098    	DB	0
0486D0 00                  A  8099    	DB	0
0486D1 00                  A  8100    	DB	0
0486D2 00                  A  8101    	DB	0
0486D3 00                  A  8102    	DB	0
0486D4 01                  A  8103    	DB	1
0486D5 E57604              A  8104    	DW24	_operands_im
0486D8 0000                A  8105    	DW	0
0486DA 00                  A  8106    	DB	0
0486DB 69                  A  8107    	DB	105
0486DC 6E                  A  8108    	DB	110
0486DD 00                  A  8109    	DB	0
0486DE 00                  A  8110    	DB	0
0486DF 00                  A  8111    	DB	0
0486E0 00                  A  8112    	DB	0
0486E1 00                  A  8113    	DB	0
0486E2 00                  A  8114    	DB	0
0486E3 00                  A  8115    	DB	0
0486E4 00                  A  8116    	DB	0
0486E5 03                  A  8117    	DB	3
0486E6 F57604              A  8118    	DW24	_operands_in
0486E9 0000                A  8119    	DW	0
0486EB 00                  A  8120    	DB	0
0486EC 69                  A  8121    	DB	105
0486ED 6E                  A  8122    	DB	110
0486EE 30                  A  8123    	DB	48
0486EF 00                  A  8124    	DB	0
0486F0 00                  A  8125    	DB	0
0486F1 00                  A  8126    	DB	0
0486F2 00                  A  8127    	DB	0
0486F3 00                  A  8128    	DB	0
0486F4 00                  A  8129    	DB	0
0486F5 00                  A  8130    	DB	0
0486F6 01                  A  8131    	DB	1
0486F7 257704              A  8132    	DW24	_operands_in0
0486FA 0000                A  8133    	DW	0
0486FC 00                  A  8134    	DB	0
0486FD 69                  A  8135    	DB	105
0486FE 6E                  A  8136    	DB	110
0486FF 63                  A  8137    	DB	99
048700 00                  A  8138    	DB	0
048701 00                  A  8139    	DB	0
048702 00                  A  8140    	DB	0
048703 00                  A  8141    	DB	0
048704 00                  A  8142    	DB	0
048705 00                  A  8143    	DB	0
048706 00                  A  8144    	DB	0
048707 07                  A  8145    	DB	7
048708 357704              A  8146    	DW24	_operands_inc
04870B 0000                A  8147    	DW	0
04870D 00                  A  8148    	DB	0
04870E 69                  A  8149    	DB	105
04870F 6E                  A  8150    	DB	110
048710 63                  A  8151    	DB	99
048711 6C                  A  8152    	DB	108
048712 75                  A  8153    	DB	117
048713 64                  A  8154    	DB	100
048714 65                  A  8155    	DB	101
048715 00                  A  8156    	DB	0
048716 01                  A  8157    	DB	1
048717 09                  A  8158    	DB	9
048718 00                  A  8159    	DB	0
048719 000000              A  8160    	DW24	0
04871C 0100                A  8161    	DW	1
04871E 00                  A  8162    	DB	0
04871F 69                  A  8163    	DB	105
048720 6E                  A  8164    	DB	110
048721 64                  A  8165    	DB	100
048722 00                  A  8166    	DB	0
048723 00                  A  8167    	DB	0
048724 00                  A  8168    	DB	0
048725 00                  A  8169    	DB	0
048726 00                  A  8170    	DB	0
048727 00                  A  8171    	DB	0
048728 00                  A  8172    	DB	0
048729 01                  A  8173    	DB	1
04872A A57704              A  8174    	DW24	_operands_ind
04872D 0000                A  8175    	DW	0
04872F 00                  A  8176    	DB	0
048730 69                  A  8177    	DB	105
048731 6E                  A  8178    	DB	110
048732 64                  A  8179    	DB	100
048733 32                  A  8180    	DB	50
048734 00                  A  8181    	DB	0
048735 00                  A  8182    	DB	0
048736 00                  A  8183    	DB	0
048737 00                  A  8184    	DB	0
048738 00                  A  8185    	DB	0
048739 00                  A  8186    	DB	0
04873A 01                  A  8187    	DB	1
04873B B57704              A  8188    	DW24	_operands_ind2
04873E 0000                A  8189    	DW	0
048740 00                  A  8190    	DB	0
048741 69                  A  8191    	DB	105
048742 6E                  A  8192    	DB	110
048743 64                  A  8193    	DB	100
048744 32                  A  8194    	DB	50
048745 72                  A  8195    	DB	114
048746 00                  A  8196    	DB	0
048747 00                  A  8197    	DB	0
048748 00                  A  8198    	DB	0
048749 00                  A  8199    	DB	0
04874A 00                  A  8200    	DB	0
04874B 01                  A  8201    	DB	1
04874C C57704              A  8202    	DW24	_operands_ind2r
04874F 0000                A  8203    	DW	0
048751 00                  A  8204    	DB	0
048752 69                  A  8205    	DB	105
048753 6E                  A  8206    	DB	110
048754 64                  A  8207    	DB	100
048755 6D                  A  8208    	DB	109
048756 00                  A  8209    	DB	0
048757 00                  A  8210    	DB	0
048758 00                  A  8211    	DB	0
048759 00                  A  8212    	DB	0
04875A 00                  A  8213    	DB	0
04875B 00                  A  8214    	DB	0
04875C 01                  A  8215    	DB	1
04875D D57704              A  8216    	DW24	_operands_indm
048760 0000                A  8217    	DW	0
048762 00                  A  8218    	DB	0
048763 69                  A  8219    	DB	105
048764 6E                  A  8220    	DB	110
048765 64                  A  8221    	DB	100
048766 6D                  A  8222    	DB	109
048767 72                  A  8223    	DB	114
048768 00                  A  8224    	DB	0
048769 00                  A  8225    	DB	0
04876A 00                  A  8226    	DB	0
04876B 00                  A  8227    	DB	0
04876C 00                  A  8228    	DB	0
04876D 01                  A  8229    	DB	1
04876E E57704              A  8230    	DW24	_operands_indmr
048771 0000                A  8231    	DW	0
048773 00                  A  8232    	DB	0
048774 69                  A  8233    	DB	105
048775 6E                  A  8234    	DB	110
048776 64                  A  8235    	DB	100
048777 72                  A  8236    	DB	114
048778 00                  A  8237    	DB	0
048779 00                  A  8238    	DB	0
04877A 00                  A  8239    	DB	0
04877B 00                  A  8240    	DB	0
04877C 00                  A  8241    	DB	0
04877D 00                  A  8242    	DB	0
04877E 01                  A  8243    	DB	1
04877F F57704              A  8244    	DW24	_operands_indr
048782 0000                A  8245    	DW	0
048784 00                  A  8246    	DB	0
048785 69                  A  8247    	DB	105
048786 6E                  A  8248    	DB	110
048787 64                  A  8249    	DB	100
048788 72                  A  8250    	DB	114
048789 78                  A  8251    	DB	120
04878A 00                  A  8252    	DB	0
04878B 00                  A  8253    	DB	0
04878C 00                  A  8254    	DB	0
04878D 00                  A  8255    	DB	0
04878E 00                  A  8256    	DB	0
04878F 01                  A  8257    	DB	1
048790 057804              A  8258    	DW24	_operands_indrx
048793 0000                A  8259    	DW	0
048795 00                  A  8260    	DB	0
048796 69                  A  8261    	DB	105
048797 6E                  A  8262    	DB	110
048798 69                  A  8263    	DB	105
048799 00                  A  8264    	DB	0
04879A 00                  A  8265    	DB	0
04879B 00                  A  8266    	DB	0
04879C 00                  A  8267    	DB	0
04879D 00                  A  8268    	DB	0
04879E 00                  A  8269    	DB	0
04879F 00                  A  8270    	DB	0
0487A0 01                  A  8271    	DB	1
0487A1 157804              A  8272    	DW24	_operands_ini
0487A4 0000                A  8273    	DW	0
0487A6 00                  A  8274    	DB	0
0487A7 69                  A  8275    	DB	105
0487A8 6E                  A  8276    	DB	110
0487A9 69                  A  8277    	DB	105
0487AA 32                  A  8278    	DB	50
0487AB 00                  A  8279    	DB	0
0487AC 00                  A  8280    	DB	0
0487AD 00                  A  8281    	DB	0
0487AE 00                  A  8282    	DB	0
0487AF 00                  A  8283    	DB	0
0487B0 00                  A  8284    	DB	0
0487B1 01                  A  8285    	DB	1
0487B2 257804              A  8286    	DW24	_operands_ini2
0487B5 0000                A  8287    	DW	0
0487B7 00                  A  8288    	DB	0
0487B8 69                  A  8289    	DB	105
0487B9 6E                  A  8290    	DB	110
0487BA 69                  A  8291    	DB	105
0487BB 32                  A  8292    	DB	50
0487BC 72                  A  8293    	DB	114
0487BD 00                  A  8294    	DB	0
0487BE 00                  A  8295    	DB	0
0487BF 00                  A  8296    	DB	0
0487C0 00                  A  8297    	DB	0
0487C1 00                  A  8298    	DB	0
0487C2 01                  A  8299    	DB	1
0487C3 357804              A  8300    	DW24	_operands_ini2r
0487C6 0000                A  8301    	DW	0
0487C8 00                  A  8302    	DB	0
0487C9 69                  A  8303    	DB	105
0487CA 6E                  A  8304    	DB	110
0487CB 69                  A  8305    	DB	105
0487CC 6D                  A  8306    	DB	109
0487CD 00                  A  8307    	DB	0
0487CE 00                  A  8308    	DB	0
0487CF 00                  A  8309    	DB	0
0487D0 00                  A  8310    	DB	0
0487D1 00                  A  8311    	DB	0
0487D2 00                  A  8312    	DB	0
0487D3 01                  A  8313    	DB	1
0487D4 457804              A  8314    	DW24	_operands_inim
0487D7 0000                A  8315    	DW	0
0487D9 00                  A  8316    	DB	0
0487DA 69                  A  8317    	DB	105
0487DB 6E                  A  8318    	DB	110
0487DC 69                  A  8319    	DB	105
0487DD 6D                  A  8320    	DB	109
0487DE 72                  A  8321    	DB	114
0487DF 00                  A  8322    	DB	0
0487E0 00                  A  8323    	DB	0
0487E1 00                  A  8324    	DB	0
0487E2 00                  A  8325    	DB	0
0487E3 00                  A  8326    	DB	0
0487E4 01                  A  8327    	DB	1
0487E5 557804              A  8328    	DW24	_operands_inimr
0487E8 0000                A  8329    	DW	0
0487EA 00                  A  8330    	DB	0
0487EB 69                  A  8331    	DB	105
0487EC 6E                  A  8332    	DB	110
0487ED 69                  A  8333    	DB	105
0487EE 72                  A  8334    	DB	114
0487EF 00                  A  8335    	DB	0
0487F0 00                  A  8336    	DB	0
0487F1 00                  A  8337    	DB	0
0487F2 00                  A  8338    	DB	0
0487F3 00                  A  8339    	DB	0
0487F4 00                  A  8340    	DB	0
0487F5 01                  A  8341    	DB	1
0487F6 657804              A  8342    	DW24	_operands_inir
0487F9 0000                A  8343    	DW	0
0487FB 00                  A  8344    	DB	0
0487FC 69                  A  8345    	DB	105
0487FD 6E                  A  8346    	DB	110
0487FE 69                  A  8347    	DB	105
0487FF 72                  A  8348    	DB	114
048800 78                  A  8349    	DB	120
048801 00                  A  8350    	DB	0
048802 00                  A  8351    	DB	0
048803 00                  A  8352    	DB	0
048804 00                  A  8353    	DB	0
048805 00                  A  8354    	DB	0
048806 01                  A  8355    	DB	1
048807 757804              A  8356    	DW24	_operands_inirx
04880A 0000                A  8357    	DW	0
04880C 00                  A  8358    	DB	0
04880D 6A                  A  8359    	DB	106
04880E 70                  A  8360    	DB	112
04880F 00                  A  8361    	DB	0
048810 00                  A  8362    	DB	0
048811 00                  A  8363    	DB	0
048812 00                  A  8364    	DB	0
048813 00                  A  8365    	DB	0
048814 00                  A  8366    	DB	0
048815 00                  A  8367    	DB	0
048816 00                  A  8368    	DB	0
048817 04                  A  8369    	DB	4
048818 857804              A  8370    	DW24	_operands_jp
04881B 0000                A  8371    	DW	0
04881D 00                  A  8372    	DB	0
04881E 6A                  A  8373    	DB	106
04881F 72                  A  8374    	DB	114
048820 00                  A  8375    	DB	0
048821 00                  A  8376    	DB	0
048822 00                  A  8377    	DB	0
048823 00                  A  8378    	DB	0
048824 00                  A  8379    	DB	0
048825 00                  A  8380    	DB	0
048826 00                  A  8381    	DB	0
048827 00                  A  8382    	DB	0
048828 02                  A  8383    	DB	2
048829 C57804              A  8384    	DW24	_operands_jr
04882C 0000                A  8385    	DW	0
04882E 00                  A  8386    	DB	0
04882F 6C                  A  8387    	DB	108
048830 64                  A  8388    	DB	100
048831 00                  A  8389    	DB	0
048832 00                  A  8390    	DB	0
048833 00                  A  8391    	DB	0
048834 00                  A  8392    	DB	0
048835 00                  A  8393    	DB	0
048836 00                  A  8394    	DB	0
048837 00                  A  8395    	DB	0
048838 00                  A  8396    	DB	0
048839 39                  A  8397    	DB	57
04883A E57804              A  8398    	DW24	_operands_ld
04883D 0000                A  8399    	DW	0
04883F 00                  A  8400    	DB	0
048840 6C                  A  8401    	DB	108
048841 64                  A  8402    	DB	100
048842 64                  A  8403    	DB	100
048843 00                  A  8404    	DB	0
048844 00                  A  8405    	DB	0
048845 00                  A  8406    	DB	0
048846 00                  A  8407    	DB	0
048847 00                  A  8408    	DB	0
048848 00                  A  8409    	DB	0
048849 00                  A  8410    	DB	0
04884A 01                  A  8411    	DB	1
04884B 757C04              A  8412    	DW24	_operands_ldd
04884E 0000                A  8413    	DW	0
048850 00                  A  8414    	DB	0
048851 6C                  A  8415    	DB	108
048852 64                  A  8416    	DB	100
048853 64                  A  8417    	DB	100
048854 72                  A  8418    	DB	114
048855 00                  A  8419    	DB	0
048856 00                  A  8420    	DB	0
048857 00                  A  8421    	DB	0
048858 00                  A  8422    	DB	0
048859 00                  A  8423    	DB	0
04885A 00                  A  8424    	DB	0
04885B 01                  A  8425    	DB	1
04885C 857C04              A  8426    	DW24	_operands_lddr
04885F 0000                A  8427    	DW	0
048861 00                  A  8428    	DB	0
048862 6C                  A  8429    	DB	108
048863 64                  A  8430    	DB	100
048864 69                  A  8431    	DB	105
048865 00                  A  8432    	DB	0
048866 00                  A  8433    	DB	0
048867 00                  A  8434    	DB	0
048868 00                  A  8435    	DB	0
048869 00                  A  8436    	DB	0
04886A 00                  A  8437    	DB	0
04886B 00                  A  8438    	DB	0
04886C 01                  A  8439    	DB	1
04886D 957C04              A  8440    	DW24	_operands_ldi
048870 0000                A  8441    	DW	0
048872 00                  A  8442    	DB	0
048873 6C                  A  8443    	DB	108
048874 64                  A  8444    	DB	100
048875 69                  A  8445    	DB	105
048876 72                  A  8446    	DB	114
048877 00                  A  8447    	DB	0
048878 00                  A  8448    	DB	0
048879 00                  A  8449    	DB	0
04887A 00                  A  8450    	DB	0
04887B 00                  A  8451    	DB	0
04887C 00                  A  8452    	DB	0
04887D 01                  A  8453    	DB	1
04887E A57C04              A  8454    	DW24	_operands_ldir
048881 0000                A  8455    	DW	0
048883 00                  A  8456    	DB	0
048884 6C                  A  8457    	DB	108
048885 65                  A  8458    	DB	101
048886 61                  A  8459    	DB	97
048887 00                  A  8460    	DB	0
048888 00                  A  8461    	DB	0
048889 00                  A  8462    	DB	0
04888A 00                  A  8463    	DB	0
04888B 00                  A  8464    	DB	0
04888C 00                  A  8465    	DB	0
04888D 00                  A  8466    	DB	0
04888E 06                  A  8467    	DB	6
04888F B57C04              A  8468    	DW24	_operands_lea
048892 0000                A  8469    	DW	0
048894 00                  A  8470    	DB	0
048895 6D                  A  8471    	DB	109
048896 6C                  A  8472    	DB	108
048897 74                  A  8473    	DB	116
048898 00                  A  8474    	DB	0
048899 00                  A  8475    	DB	0
04889A 00                  A  8476    	DB	0
04889B 00                  A  8477    	DB	0
04889C 00                  A  8478    	DB	0
04889D 00                  A  8479    	DB	0
04889E 00                  A  8480    	DB	0
04889F 02                  A  8481    	DB	2
0488A0 157D04              A  8482    	DW24	_operands_mlt
0488A3 0000                A  8483    	DW	0
0488A5 00                  A  8484    	DB	0
0488A6 6E                  A  8485    	DB	110
0488A7 65                  A  8486    	DB	101
0488A8 67                  A  8487    	DB	103
0488A9 00                  A  8488    	DB	0
0488AA 00                  A  8489    	DB	0
0488AB 00                  A  8490    	DB	0
0488AC 00                  A  8491    	DB	0
0488AD 00                  A  8492    	DB	0
0488AE 00                  A  8493    	DB	0
0488AF 00                  A  8494    	DB	0
0488B0 01                  A  8495    	DB	1
0488B1 357D04              A  8496    	DW24	_operands_neg
0488B4 0000                A  8497    	DW	0
0488B6 00                  A  8498    	DB	0
0488B7 6E                  A  8499    	DB	110
0488B8 6F                  A  8500    	DB	111
0488B9 70                  A  8501    	DB	112
0488BA 00                  A  8502    	DB	0
0488BB 00                  A  8503    	DB	0
0488BC 00                  A  8504    	DB	0
0488BD 00                  A  8505    	DB	0
0488BE 00                  A  8506    	DB	0
0488BF 00                  A  8507    	DB	0
0488C0 00                  A  8508    	DB	0
0488C1 01                  A  8509    	DB	1
0488C2 457D04              A  8510    	DW24	_operands_nop
0488C5 0000                A  8511    	DW	0
0488C7 00                  A  8512    	DB	0
0488C8 6F                  A  8513    	DB	111
0488C9 72                  A  8514    	DB	114
0488CA 00                  A  8515    	DB	0
0488CB 00                  A  8516    	DB	0
0488CC 00                  A  8517    	DB	0
0488CD 00                  A  8518    	DB	0
0488CE 00                  A  8519    	DB	0
0488CF 00                  A  8520    	DB	0
0488D0 00                  A  8521    	DB	0
0488D1 00                  A  8522    	DB	0
0488D2 0A                  A  8523    	DB	10
0488D3 557D04              A  8524    	DW24	_operands_or
0488D6 0000                A  8525    	DW	0
0488D8 00                  A  8526    	DB	0
0488D9 6F                  A  8527    	DB	111
0488DA 72                  A  8528    	DB	114
0488DB 67                  A  8529    	DB	103
0488DC 00                  A  8530    	DB	0
0488DD 00                  A  8531    	DB	0
0488DE 00                  A  8532    	DB	0
0488DF 00                  A  8533    	DB	0
0488E0 00                  A  8534    	DB	0
0488E1 01                  A  8535    	DB	1
0488E2 02                  A  8536    	DB	2
0488E3 00                  A  8537    	DB	0
0488E4 000000              A  8538    	DW24	0
0488E7 0100                A  8539    	DW	1
0488E9 00                  A  8540    	DB	0
0488EA 6F                  A  8541    	DB	111
0488EB 74                  A  8542    	DB	116
0488EC 64                  A  8543    	DB	100
0488ED 32                  A  8544    	DB	50
0488EE 72                  A  8545    	DB	114
0488EF 00                  A  8546    	DB	0
0488F0 00                  A  8547    	DB	0
0488F1 00                  A  8548    	DB	0
0488F2 00                  A  8549    	DB	0
0488F3 00                  A  8550    	DB	0
0488F4 01                  A  8551    	DB	1
0488F5 F57D04              A  8552    	DW24	_operands_otd2r
0488F8 0000                A  8553    	DW	0
0488FA 00                  A  8554    	DB	0
0488FB 6F                  A  8555    	DB	111
0488FC 74                  A  8556    	DB	116
0488FD 64                  A  8557    	DB	100
0488FE 6D                  A  8558    	DB	109
0488FF 00                  A  8559    	DB	0
048900 00                  A  8560    	DB	0
048901 00                  A  8561    	DB	0
048902 00                  A  8562    	DB	0
048903 00                  A  8563    	DB	0
048904 00                  A  8564    	DB	0
048905 01                  A  8565    	DB	1
048906 057E04              A  8566    	DW24	_operands_otdm
048909 0000                A  8567    	DW	0
04890B 00                  A  8568    	DB	0
04890C 6F                  A  8569    	DB	111
04890D 74                  A  8570    	DB	116
04890E 64                  A  8571    	DB	100
04890F 6D                  A  8572    	DB	109
048910 72                  A  8573    	DB	114
048911 00                  A  8574    	DB	0
048912 00                  A  8575    	DB	0
048913 00                  A  8576    	DB	0
048914 00                  A  8577    	DB	0
048915 00                  A  8578    	DB	0
048916 01                  A  8579    	DB	1
048917 157E04              A  8580    	DW24	_operands_otdmr
04891A 0000                A  8581    	DW	0
04891C 00                  A  8582    	DB	0
04891D 6F                  A  8583    	DB	111
04891E 74                  A  8584    	DB	116
04891F 64                  A  8585    	DB	100
048920 72                  A  8586    	DB	114
048921 00                  A  8587    	DB	0
048922 00                  A  8588    	DB	0
048923 00                  A  8589    	DB	0
048924 00                  A  8590    	DB	0
048925 00                  A  8591    	DB	0
048926 00                  A  8592    	DB	0
048927 01                  A  8593    	DB	1
048928 257E04              A  8594    	DW24	_operands_otdr
04892B 0000                A  8595    	DW	0
04892D 00                  A  8596    	DB	0
04892E 6F                  A  8597    	DB	111
04892F 74                  A  8598    	DB	116
048930 64                  A  8599    	DB	100
048931 72                  A  8600    	DB	114
048932 78                  A  8601    	DB	120
048933 00                  A  8602    	DB	0
048934 00                  A  8603    	DB	0
048935 00                  A  8604    	DB	0
048936 00                  A  8605    	DB	0
048937 00                  A  8606    	DB	0
048938 01                  A  8607    	DB	1
048939 357E04              A  8608    	DW24	_operands_otdrx
04893C 0000                A  8609    	DW	0
04893E 00                  A  8610    	DB	0
04893F 6F                  A  8611    	DB	111
048940 74                  A  8612    	DB	116
048941 69                  A  8613    	DB	105
048942 32                  A  8614    	DB	50
048943 72                  A  8615    	DB	114
048944 00                  A  8616    	DB	0
048945 00                  A  8617    	DB	0
048946 00                  A  8618    	DB	0
048947 00                  A  8619    	DB	0
048948 00                  A  8620    	DB	0
048949 01                  A  8621    	DB	1
04894A 457E04              A  8622    	DW24	_operands_oti2r
04894D 0000                A  8623    	DW	0
04894F 00                  A  8624    	DB	0
048950 6F                  A  8625    	DB	111
048951 74                  A  8626    	DB	116
048952 69                  A  8627    	DB	105
048953 6D                  A  8628    	DB	109
048954 00                  A  8629    	DB	0
048955 00                  A  8630    	DB	0
048956 00                  A  8631    	DB	0
048957 00                  A  8632    	DB	0
048958 00                  A  8633    	DB	0
048959 00                  A  8634    	DB	0
04895A 01                  A  8635    	DB	1
04895B 557E04              A  8636    	DW24	_operands_otim
04895E 0000                A  8637    	DW	0
048960 00                  A  8638    	DB	0
048961 6F                  A  8639    	DB	111
048962 74                  A  8640    	DB	116
048963 69                  A  8641    	DB	105
048964 6D                  A  8642    	DB	109
048965 72                  A  8643    	DB	114
048966 00                  A  8644    	DB	0
048967 00                  A  8645    	DB	0
048968 00                  A  8646    	DB	0
048969 00                  A  8647    	DB	0
04896A 00                  A  8648    	DB	0
04896B 01                  A  8649    	DB	1
04896C 657E04              A  8650    	DW24	_operands_otimr
04896F 0000                A  8651    	DW	0
048971 00                  A  8652    	DB	0
048972 6F                  A  8653    	DB	111
048973 74                  A  8654    	DB	116
048974 69                  A  8655    	DB	105
048975 72                  A  8656    	DB	114
048976 00                  A  8657    	DB	0
048977 00                  A  8658    	DB	0
048978 00                  A  8659    	DB	0
048979 00                  A  8660    	DB	0
04897A 00                  A  8661    	DB	0
04897B 00                  A  8662    	DB	0
04897C 01                  A  8663    	DB	1
04897D 757E04              A  8664    	DW24	_operands_otir
048980 0000                A  8665    	DW	0
048982 00                  A  8666    	DB	0
048983 6F                  A  8667    	DB	111
048984 74                  A  8668    	DB	116
048985 69                  A  8669    	DB	105
048986 72                  A  8670    	DB	114
048987 78                  A  8671    	DB	120
048988 00                  A  8672    	DB	0
048989 00                  A  8673    	DB	0
04898A 00                  A  8674    	DB	0
04898B 00                  A  8675    	DB	0
04898C 00                  A  8676    	DB	0
04898D 01                  A  8677    	DB	1
04898E 857E04              A  8678    	DW24	_operands_otirx
048991 0000                A  8679    	DW	0
048993 00                  A  8680    	DB	0
048994 6F                  A  8681    	DB	111
048995 75                  A  8682    	DB	117
048996 74                  A  8683    	DB	116
048997 00                  A  8684    	DB	0
048998 00                  A  8685    	DB	0
048999 00                  A  8686    	DB	0
04899A 00                  A  8687    	DB	0
04899B 00                  A  8688    	DB	0
04899C 00                  A  8689    	DB	0
04899D 00                  A  8690    	DB	0
04899E 03                  A  8691    	DB	3
04899F 957E04              A  8692    	DW24	_operands_out
0489A2 0000                A  8693    	DW	0
0489A4 00                  A  8694    	DB	0
0489A5 6F                  A  8695    	DB	111
0489A6 75                  A  8696    	DB	117
0489A7 74                  A  8697    	DB	116
0489A8 30                  A  8698    	DB	48
0489A9 00                  A  8699    	DB	0
0489AA 00                  A  8700    	DB	0
0489AB 00                  A  8701    	DB	0
0489AC 00                  A  8702    	DB	0
0489AD 00                  A  8703    	DB	0
0489AE 00                  A  8704    	DB	0
0489AF 01                  A  8705    	DB	1
0489B0 C57E04              A  8706    	DW24	_operands_out0
0489B3 0000                A  8707    	DW	0
0489B5 00                  A  8708    	DB	0
0489B6 6F                  A  8709    	DB	111
0489B7 75                  A  8710    	DB	117
0489B8 74                  A  8711    	DB	116
0489B9 64                  A  8712    	DB	100
0489BA 00                  A  8713    	DB	0
0489BB 00                  A  8714    	DB	0
0489BC 00                  A  8715    	DB	0
0489BD 00                  A  8716    	DB	0
0489BE 00                  A  8717    	DB	0
0489BF 00                  A  8718    	DB	0
0489C0 01                  A  8719    	DB	1
0489C1 D57E04              A  8720    	DW24	_operands_outd
0489C4 0000                A  8721    	DW	0
0489C6 00                  A  8722    	DB	0
0489C7 6F                  A  8723    	DB	111
0489C8 75                  A  8724    	DB	117
0489C9 74                  A  8725    	DB	116
0489CA 64                  A  8726    	DB	100
0489CB 32                  A  8727    	DB	50
0489CC 00                  A  8728    	DB	0
0489CD 00                  A  8729    	DB	0
0489CE 00                  A  8730    	DB	0
0489CF 00                  A  8731    	DB	0
0489D0 00                  A  8732    	DB	0
0489D1 01                  A  8733    	DB	1
0489D2 E57E04              A  8734    	DW24	_operands_outd2
0489D5 0000                A  8735    	DW	0
0489D7 00                  A  8736    	DB	0
0489D8 6F                  A  8737    	DB	111
0489D9 75                  A  8738    	DB	117
0489DA 74                  A  8739    	DB	116
0489DB 69                  A  8740    	DB	105
0489DC 00                  A  8741    	DB	0
0489DD 00                  A  8742    	DB	0
0489DE 00                  A  8743    	DB	0
0489DF 00                  A  8744    	DB	0
0489E0 00                  A  8745    	DB	0
0489E1 00                  A  8746    	DB	0
0489E2 01                  A  8747    	DB	1
0489E3 F57E04              A  8748    	DW24	_operands_outi
0489E6 0000                A  8749    	DW	0
0489E8 00                  A  8750    	DB	0
0489E9 6F                  A  8751    	DB	111
0489EA 75                  A  8752    	DB	117
0489EB 74                  A  8753    	DB	116
0489EC 69                  A  8754    	DB	105
0489ED 32                  A  8755    	DB	50
0489EE 00                  A  8756    	DB	0
0489EF 00                  A  8757    	DB	0
0489F0 00                  A  8758    	DB	0
0489F1 00                  A  8759    	DB	0
0489F2 00                  A  8760    	DB	0
0489F3 01                  A  8761    	DB	1
0489F4 057F04              A  8762    	DW24	_operands_outi2
0489F7 0000                A  8763    	DW	0
0489F9 00                  A  8764    	DB	0
0489FA 70                  A  8765    	DB	112
0489FB 65                  A  8766    	DB	101
0489FC 61                  A  8767    	DB	97
0489FD 00                  A  8768    	DB	0
0489FE 00                  A  8769    	DB	0
0489FF 00                  A  8770    	DB	0
048A00 00                  A  8771    	DB	0
048A01 00                  A  8772    	DB	0
048A02 00                  A  8773    	DB	0
048A03 00                  A  8774    	DB	0
048A04 02                  A  8775    	DB	2
048A05 157F04              A  8776    	DW24	_operands_pea
048A08 0000                A  8777    	DW	0
048A0A 00                  A  8778    	DB	0
048A0B 70                  A  8779    	DB	112
048A0C 6F                  A  8780    	DB	111
048A0D 70                  A  8781    	DB	112
048A0E 00                  A  8782    	DB	0
048A0F 00                  A  8783    	DB	0
048A10 00                  A  8784    	DB	0
048A11 00                  A  8785    	DB	0
048A12 00                  A  8786    	DB	0
048A13 00                  A  8787    	DB	0
048A14 00                  A  8788    	DB	0
048A15 03                  A  8789    	DB	3
048A16 357F04              A  8790    	DW24	_operands_pop
048A19 0000                A  8791    	DW	0
048A1B 00                  A  8792    	DB	0
048A1C 70                  A  8793    	DB	112
048A1D 75                  A  8794    	DB	117
048A1E 73                  A  8795    	DB	115
048A1F 68                  A  8796    	DB	104
048A20 00                  A  8797    	DB	0
048A21 00                  A  8798    	DB	0
048A22 00                  A  8799    	DB	0
048A23 00                  A  8800    	DB	0
048A24 00                  A  8801    	DB	0
048A25 00                  A  8802    	DB	0
048A26 03                  A  8803    	DB	3
048A27 657F04              A  8804    	DW24	_operands_push
048A2A 0000                A  8805    	DW	0
048A2C 00                  A  8806    	DB	0
048A2D 72                  A  8807    	DB	114
048A2E 65                  A  8808    	DB	101
048A2F 73                  A  8809    	DB	115
048A30 00                  A  8810    	DB	0
048A31 00                  A  8811    	DB	0
048A32 00                  A  8812    	DB	0
048A33 00                  A  8813    	DB	0
048A34 00                  A  8814    	DB	0
048A35 00                  A  8815    	DB	0
048A36 00                  A  8816    	DB	0
048A37 03                  A  8817    	DB	3
048A38 957F04              A  8818    	DW24	_operands_res
048A3B 0000                A  8819    	DW	0
048A3D 00                  A  8820    	DB	0
048A3E 72                  A  8821    	DB	114
048A3F 65                  A  8822    	DB	101
048A40 74                  A  8823    	DB	116
048A41 00                  A  8824    	DB	0
048A42 00                  A  8825    	DB	0
048A43 00                  A  8826    	DB	0
048A44 00                  A  8827    	DB	0
048A45 00                  A  8828    	DB	0
048A46 00                  A  8829    	DB	0
048A47 00                  A  8830    	DB	0
048A48 02                  A  8831    	DB	2
048A49 C57F04              A  8832    	DW24	_operands_ret
048A4C 0000                A  8833    	DW	0
048A4E 00                  A  8834    	DB	0
048A4F 72                  A  8835    	DB	114
048A50 65                  A  8836    	DB	101
048A51 74                  A  8837    	DB	116
048A52 69                  A  8838    	DB	105
048A53 00                  A  8839    	DB	0
048A54 00                  A  8840    	DB	0
048A55 00                  A  8841    	DB	0
048A56 00                  A  8842    	DB	0
048A57 00                  A  8843    	DB	0
048A58 00                  A  8844    	DB	0
048A59 01                  A  8845    	DB	1
048A5A E57F04              A  8846    	DW24	_operands_reti
048A5D 0000                A  8847    	DW	0
048A5F 00                  A  8848    	DB	0
048A60 72                  A  8849    	DB	114
048A61 65                  A  8850    	DB	101
048A62 74                  A  8851    	DB	116
048A63 6E                  A  8852    	DB	110
048A64 00                  A  8853    	DB	0
048A65 00                  A  8854    	DB	0
048A66 00                  A  8855    	DB	0
048A67 00                  A  8856    	DB	0
048A68 00                  A  8857    	DB	0
048A69 00                  A  8858    	DB	0
048A6A 01                  A  8859    	DB	1
048A6B F57F04              A  8860    	DW24	_operands_retn
048A6E 0000                A  8861    	DW	0
048A70 00                  A  8862    	DB	0
048A71 72                  A  8863    	DB	114
048A72 6C                  A  8864    	DB	108
048A73 00                  A  8865    	DB	0
048A74 00                  A  8866    	DB	0
048A75 00                  A  8867    	DB	0
048A76 00                  A  8868    	DB	0
048A77 00                  A  8869    	DB	0
048A78 00                  A  8870    	DB	0
048A79 00                  A  8871    	DB	0
048A7A 00                  A  8872    	DB	0
048A7B 03                  A  8873    	DB	3
048A7C 058004              A  8874    	DW24	_operands_rl
048A7F 0000                A  8875    	DW	0
048A81 00                  A  8876    	DB	0
048A82 72                  A  8877    	DB	114
048A83 6C                  A  8878    	DB	108
048A84 61                  A  8879    	DB	97
048A85 00                  A  8880    	DB	0
048A86 00                  A  8881    	DB	0
048A87 00                  A  8882    	DB	0
048A88 00                  A  8883    	DB	0
048A89 00                  A  8884    	DB	0
048A8A 00                  A  8885    	DB	0
048A8B 00                  A  8886    	DB	0
048A8C 01                  A  8887    	DB	1
048A8D 358004              A  8888    	DW24	_operands_rla
048A90 0000                A  8889    	DW	0
048A92 00                  A  8890    	DB	0
048A93 72                  A  8891    	DB	114
048A94 6C                  A  8892    	DB	108
048A95 63                  A  8893    	DB	99
048A96 00                  A  8894    	DB	0
048A97 00                  A  8895    	DB	0
048A98 00                  A  8896    	DB	0
048A99 00                  A  8897    	DB	0
048A9A 00                  A  8898    	DB	0
048A9B 00                  A  8899    	DB	0
048A9C 00                  A  8900    	DB	0
048A9D 03                  A  8901    	DB	3
048A9E 458004              A  8902    	DW24	_operands_rlc
048AA1 0000                A  8903    	DW	0
048AA3 00                  A  8904    	DB	0
048AA4 72                  A  8905    	DB	114
048AA5 6C                  A  8906    	DB	108
048AA6 63                  A  8907    	DB	99
048AA7 61                  A  8908    	DB	97
048AA8 00                  A  8909    	DB	0
048AA9 00                  A  8910    	DB	0
048AAA 00                  A  8911    	DB	0
048AAB 00                  A  8912    	DB	0
048AAC 00                  A  8913    	DB	0
048AAD 00                  A  8914    	DB	0
048AAE 01                  A  8915    	DB	1
048AAF 758004              A  8916    	DW24	_operands_rlca
048AB2 0000                A  8917    	DW	0
048AB4 00                  A  8918    	DB	0
048AB5 72                  A  8919    	DB	114
048AB6 6C                  A  8920    	DB	108
048AB7 64                  A  8921    	DB	100
048AB8 00                  A  8922    	DB	0
048AB9 00                  A  8923    	DB	0
048ABA 00                  A  8924    	DB	0
048ABB 00                  A  8925    	DB	0
048ABC 00                  A  8926    	DB	0
048ABD 00                  A  8927    	DB	0
048ABE 00                  A  8928    	DB	0
048ABF 01                  A  8929    	DB	1
048AC0 858004              A  8930    	DW24	_operands_rld
048AC3 0000                A  8931    	DW	0
048AC5 00                  A  8932    	DB	0
048AC6 72                  A  8933    	DB	114
048AC7 72                  A  8934    	DB	114
048AC8 00                  A  8935    	DB	0
048AC9 00                  A  8936    	DB	0
048ACA 00                  A  8937    	DB	0
048ACB 00                  A  8938    	DB	0
048ACC 00                  A  8939    	DB	0
048ACD 00                  A  8940    	DB	0
048ACE 00                  A  8941    	DB	0
048ACF 00                  A  8942    	DB	0
048AD0 03                  A  8943    	DB	3
048AD1 958004              A  8944    	DW24	_operands_rr
048AD4 0000                A  8945    	DW	0
048AD6 00                  A  8946    	DB	0
048AD7 72                  A  8947    	DB	114
048AD8 72                  A  8948    	DB	114
048AD9 61                  A  8949    	DB	97
048ADA 00                  A  8950    	DB	0
048ADB 00                  A  8951    	DB	0
048ADC 00                  A  8952    	DB	0
048ADD 00                  A  8953    	DB	0
048ADE 00                  A  8954    	DB	0
048ADF 00                  A  8955    	DB	0
048AE0 00                  A  8956    	DB	0
048AE1 01                  A  8957    	DB	1
048AE2 C58004              A  8958    	DW24	_operands_rra
048AE5 0000                A  8959    	DW	0
048AE7 00                  A  8960    	DB	0
048AE8 72                  A  8961    	DB	114
048AE9 72                  A  8962    	DB	114
048AEA 63                  A  8963    	DB	99
048AEB 00                  A  8964    	DB	0
048AEC 00                  A  8965    	DB	0
048AED 00                  A  8966    	DB	0
048AEE 00                  A  8967    	DB	0
048AEF 00                  A  8968    	DB	0
048AF0 00                  A  8969    	DB	0
048AF1 00                  A  8970    	DB	0
048AF2 03                  A  8971    	DB	3
048AF3 D58004              A  8972    	DW24	_operands_rrc
048AF6 0000                A  8973    	DW	0
048AF8 00                  A  8974    	DB	0
048AF9 72                  A  8975    	DB	114
048AFA 72                  A  8976    	DB	114
048AFB 63                  A  8977    	DB	99
048AFC 61                  A  8978    	DB	97
048AFD 00                  A  8979    	DB	0
048AFE 00                  A  8980    	DB	0
048AFF 00                  A  8981    	DB	0
048B00 00                  A  8982    	DB	0
048B01 00                  A  8983    	DB	0
048B02 00                  A  8984    	DB	0
048B03 01                  A  8985    	DB	1
048B04 058104              A  8986    	DW24	_operands_rrca
048B07 0000                A  8987    	DW	0
048B09 00                  A  8988    	DB	0
048B0A 72                  A  8989    	DB	114
048B0B 72                  A  8990    	DB	114
048B0C 64                  A  8991    	DB	100
048B0D 00                  A  8992    	DB	0
048B0E 00                  A  8993    	DB	0
048B0F 00                  A  8994    	DB	0
048B10 00                  A  8995    	DB	0
048B11 00                  A  8996    	DB	0
048B12 00                  A  8997    	DB	0
048B13 00                  A  8998    	DB	0
048B14 01                  A  8999    	DB	1
048B15 158104              A  9000    	DW24	_operands_rrd
048B18 0000                A  9001    	DW	0
048B1A 00                  A  9002    	DB	0
048B1B 72                  A  9003    	DB	114
048B1C 73                  A  9004    	DB	115
048B1D 6D                  A  9005    	DB	109
048B1E 69                  A  9006    	DB	105
048B1F 78                  A  9007    	DB	120
048B20 00                  A  9008    	DB	0
048B21 00                  A  9009    	DB	0
048B22 00                  A  9010    	DB	0
048B23 00                  A  9011    	DB	0
048B24 00                  A  9012    	DB	0
048B25 01                  A  9013    	DB	1
048B26 258104              A  9014    	DW24	_operands_rsmix
048B29 0000                A  9015    	DW	0
048B2B 00                  A  9016    	DB	0
048B2C 72                  A  9017    	DB	114
048B2D 73                  A  9018    	DB	115
048B2E 74                  A  9019    	DB	116
048B2F 00                  A  9020    	DB	0
048B30 00                  A  9021    	DB	0
048B31 00                  A  9022    	DB	0
048B32 00                  A  9023    	DB	0
048B33 00                  A  9024    	DB	0
048B34 00                  A  9025    	DB	0
048B35 00                  A  9026    	DB	0
048B36 01                  A  9027    	DB	1
048B37 358104              A  9028    	DW24	_operands_rst
048B3A 0000                A  9029    	DW	0
048B3C 00                  A  9030    	DB	0
048B3D 73                  A  9031    	DB	115
048B3E 62                  A  9032    	DB	98
048B3F 63                  A  9033    	DB	99
048B40 00                  A  9034    	DB	0
048B41 00                  A  9035    	DB	0
048B42 00                  A  9036    	DB	0
048B43 00                  A  9037    	DB	0
048B44 00                  A  9038    	DB	0
048B45 00                  A  9039    	DB	0
048B46 00                  A  9040    	DB	0
048B47 07                  A  9041    	DB	7
048B48 458104              A  9042    	DW24	_operands_sbc
048B4B 0000                A  9043    	DW	0
048B4D 00                  A  9044    	DB	0
048B4E 73                  A  9045    	DB	115
048B4F 63                  A  9046    	DB	99
048B50 66                  A  9047    	DB	102
048B51 00                  A  9048    	DB	0
048B52 00                  A  9049    	DB	0
048B53 00                  A  9050    	DB	0
048B54 00                  A  9051    	DB	0
048B55 00                  A  9052    	DB	0
048B56 00                  A  9053    	DB	0
048B57 00                  A  9054    	DB	0
048B58 01                  A  9055    	DB	1
048B59 B58104              A  9056    	DW24	_operands_scf
048B5C 0000                A  9057    	DW	0
048B5E 00                  A  9058    	DB	0
048B5F 73                  A  9059    	DB	115
048B60 65                  A  9060    	DB	101
048B61 74                  A  9061    	DB	116
048B62 00                  A  9062    	DB	0
048B63 00                  A  9063    	DB	0
048B64 00                  A  9064    	DB	0
048B65 00                  A  9065    	DB	0
048B66 00                  A  9066    	DB	0
048B67 00                  A  9067    	DB	0
048B68 00                  A  9068    	DB	0
048B69 03                  A  9069    	DB	3
048B6A C58104              A  9070    	DW24	_operands_set
048B6D 0000                A  9071    	DW	0
048B6F 00                  A  9072    	DB	0
048B70 73                  A  9073    	DB	115
048B71 6C                  A  9074    	DB	108
048B72 61                  A  9075    	DB	97
048B73 00                  A  9076    	DB	0
048B74 00                  A  9077    	DB	0
048B75 00                  A  9078    	DB	0
048B76 00                  A  9079    	DB	0
048B77 00                  A  9080    	DB	0
048B78 00                  A  9081    	DB	0
048B79 00                  A  9082    	DB	0
048B7A 03                  A  9083    	DB	3
048B7B F58104              A  9084    	DW24	_operands_sla
048B7E 0000                A  9085    	DW	0
048B80 00                  A  9086    	DB	0
048B81 73                  A  9087    	DB	115
048B82 6C                  A  9088    	DB	108
048B83 70                  A  9089    	DB	112
048B84 00                  A  9090    	DB	0
048B85 00                  A  9091    	DB	0
048B86 00                  A  9092    	DB	0
048B87 00                  A  9093    	DB	0
048B88 00                  A  9094    	DB	0
048B89 00                  A  9095    	DB	0
048B8A 00                  A  9096    	DB	0
048B8B 01                  A  9097    	DB	1
048B8C 258204              A  9098    	DW24	_operands_slp
048B8F 0000                A  9099    	DW	0
048B91 00                  A  9100    	DB	0
048B92 73                  A  9101    	DB	115
048B93 72                  A  9102    	DB	114
048B94 61                  A  9103    	DB	97
048B95 00                  A  9104    	DB	0
048B96 00                  A  9105    	DB	0
048B97 00                  A  9106    	DB	0
048B98 00                  A  9107    	DB	0
048B99 00                  A  9108    	DB	0
048B9A 00                  A  9109    	DB	0
048B9B 00                  A  9110    	DB	0
048B9C 03                  A  9111    	DB	3
048B9D 358204              A  9112    	DW24	_operands_sra
048BA0 0000                A  9113    	DW	0
048BA2 00                  A  9114    	DB	0
048BA3 73                  A  9115    	DB	115
048BA4 72                  A  9116    	DB	114
048BA5 6C                  A  9117    	DB	108
048BA6 00                  A  9118    	DB	0
048BA7 00                  A  9119    	DB	0
048BA8 00                  A  9120    	DB	0
048BA9 00                  A  9121    	DB	0
048BAA 00                  A  9122    	DB	0
048BAB 00                  A  9123    	DB	0
048BAC 00                  A  9124    	DB	0
048BAD 03                  A  9125    	DB	3
048BAE 658204              A  9126    	DW24	_operands_srl
048BB1 0000                A  9127    	DW	0
048BB3 00                  A  9128    	DB	0
048BB4 73                  A  9129    	DB	115
048BB5 74                  A  9130    	DB	116
048BB6 6D                  A  9131    	DB	109
048BB7 69                  A  9132    	DB	105
048BB8 78                  A  9133    	DB	120
048BB9 00                  A  9134    	DB	0
048BBA 00                  A  9135    	DB	0
048BBB 00                  A  9136    	DB	0
048BBC 00                  A  9137    	DB	0
048BBD 00                  A  9138    	DB	0
048BBE 01                  A  9139    	DB	1
048BBF 958204              A  9140    	DW24	_operands_stmix
048BC2 0000                A  9141    	DW	0
048BC4 00                  A  9142    	DB	0
048BC5 73                  A  9143    	DB	115
048BC6 75                  A  9144    	DB	117
048BC7 62                  A  9145    	DB	98
048BC8 00                  A  9146    	DB	0
048BC9 00                  A  9147    	DB	0
048BCA 00                  A  9148    	DB	0
048BCB 00                  A  9149    	DB	0
048BCC 00                  A  9150    	DB	0
048BCD 00                  A  9151    	DB	0
048BCE 00                  A  9152    	DB	0
048BCF 0A                  A  9153    	DB	10
048BD0 A58204              A  9154    	DW24	_operands_sub
048BD3 0000                A  9155    	DW	0
048BD5 00                  A  9156    	DB	0
048BD6 74                  A  9157    	DB	116
048BD7 73                  A  9158    	DB	115
048BD8 74                  A  9159    	DB	116
048BD9 00                  A  9160    	DB	0
048BDA 00                  A  9161    	DB	0
048BDB 00                  A  9162    	DB	0
048BDC 00                  A  9163    	DB	0
048BDD 00                  A  9164    	DB	0
048BDE 00                  A  9165    	DB	0
048BDF 00                  A  9166    	DB	0
048BE0 06                  A  9167    	DB	6
048BE1 458304              A  9168    	DW24	_operands_tst
048BE4 0000                A  9169    	DW	0
048BE6 00                  A  9170    	DB	0
048BE7 74                  A  9171    	DB	116
048BE8 73                  A  9172    	DB	115
048BE9 74                  A  9173    	DB	116
048BEA 69                  A  9174    	DB	105
048BEB 6F                  A  9175    	DB	111
048BEC 00                  A  9176    	DB	0
048BED 00                  A  9177    	DB	0
048BEE 00                  A  9178    	DB	0
048BEF 00                  A  9179    	DB	0
048BF0 00                  A  9180    	DB	0
048BF1 01                  A  9181    	DB	1
048BF2 A58304              A  9182    	DW24	_operands_tstio
048BF5 0000                A  9183    	DW	0
048BF7 00                  A  9184    	DB	0
048BF8 78                  A  9185    	DB	120
048BF9 6F                  A  9186    	DB	111
048BFA 72                  A  9187    	DB	114
048BFB 00                  A  9188    	DB	0
048BFC 00                  A  9189    	DB	0
048BFD 00                  A  9190    	DB	0
048BFE 00                  A  9191    	DB	0
048BFF 00                  A  9192    	DB	0
048C00 00                  A  9193    	DB	0
048C01 00                  A  9194    	DB	0
048C02 0A                  A  9195    	DB	10
048C03 B58304              A  9196    	DW24	_operands_xor
048C06 0000                A  9197    	DW	0
048C08 00                  A  9198    	DB	0
                           A  9199    .DEFINE "instructions"
                           A  9200    .ALIAS "_instructions"
                           A  9201    .CLASS 69
                           A  9202    .VALUE _instructions
                           A  9203    .DIM 116
                           A  9204    .TAG "NONAME6"
                           A  9205    .TYPE 104
                           A  9206    .ENDEF
                           A  9207    ;  130	
                           A  9208    ;  131	// table with fast access to functions 
                           A  9209    ;  132	permittype_match permittype_matchlist[]
                           A  9210    ;  133	    {OPTYPE_NONE,           none_match}
                           A  9211    ;  134	    {OPTYPE_CC,             cc_match},
                           A  9212    ;  135	    {OPTYPE_IR,             ir_match},
                           A  9213    ;  136	    {OPTYPE_IXY,            ixy_match},
                           A  9214    ;  137	    {OPTYPE_IXYd,           ixyd_match}
                           A  9215    ;  138	    {OPTYPE_INDIRECT_IXYd,  indirect_ix
                           A  9216    ;  139	    {OPTYPE_MMN,            mmn_match},
                           A  9217    ;  140	    {OPTYPE_INDIRECT_MMN,   indirect_mm
                           A  9218    ;  141	    {OPTYPE_N,              n_match},
                           A  9219    ;  142	    {OPTYPE_A,              a_match},
                           A  9220    ;  143	    {OPTYPE_HL,             hl_match},
                           A  9221    ;  144	    {OPTYPE_INDIRECT_HL,    indirect_hl
                           A  9222    ;  145	    {OPTYPE_RR,             rr_match},
                           A  9223    ;  146	    {OPTYPE_INDIRECT_RR,    indirect_rr
                           A  9224    ;  147	    {OPTYPE_RXY,            rxy_match},
                           A  9225    ;  148	    {OPTYPE_SP,             sp_match},
                           A  9226    ;  149	    {OPTYPE_INDIRECT_SP,    indirect_sp
                           A  9227    ;  150	    {OPTYPE_R,              r_match},
                           A  9228    ;  151	    {OPTYPE_REG_R,          reg_r_match
                           A  9229    ;  152	    {OPTYPE_MB,             mb_match},
                           A  9230    ;  153	    {OPTYPE_I,              i_match},
                           A  9231    ;  154	    {OPTYPE_BIT,            b_match},
                           A  9232    ;  155	    {OPTYPE_AF,             af_match},
                           A  9233    ;  156	    {OPTYPE_DE,             de_match},
                           A  9234    ;  157	    {OPTYPE_NSELECT,        nselect_mat
                           A  9235    ;  158	    {OPTYPE_INDIRECT_N,     indirect_n_
                           A  9236    ;  159	    {OPTYPE_INDIRECT_BC,    indirect_bc
                           A  9237    ;  160	    {OPTYPE_INDIRECT_C,     indirect_c_
                           A  9238    ;  161	    {OPTYPE_INDIRECT_IXY,   indirect_ix
                           A  9239    ;  162	    {OPTYPE_CCA,            cca_match},
                           A  9240    ;  163	    {OPTYPE_INDIRECT_DE,    indirect_de
                           A  9241    ;  164	    {OPTYPE_IX,             ix_match},
                           A  9242    ;  165	    {OPTYPE_IY,             iy_match},
                           A  9243    ;  166	    {OPTYPE_IXd,            ixd_match},
                           A  9244    ;  167	    {OPTYPE_IYd,            iyd_match},
                           A  9245    ;  168	    {OPTYPE_INDIRECT_IXd,   indirect_ix
                           A  9246    ;  169	    {OPTYPE_INDIRECT_IYd,   indirect_iy
                           A  9247    ;  170	    {OPTYPE_R_AEONLY,       raeonly_mat
                           A  9248    ;  171	};
                           A  9249    ;  172	
                           A  9250    ;  173	operandlist operands_adc[] = {
                           A  9251    ;  174	    {OPTYPE_A, OPTYPE_INDIRECT_HL,     
                           A  9252    ;  175	    {OPTYPE_A, OPTYPE_IR,              
                           A  9253    ;  176	    {OPTYPE_A, OPTYPE_INDIRECT_IXYd,   
                           A  9254    ;  177	    {OPTYPE_A, OPTYPE_N,               
                           A  9255    ;  178	    {OPTYPE_A, OPTYPE_R,               
                           A  9256    ;  179	    {OPTYPE_HL, OPTYPE_RR,             
                           A  9257    ;  180	    {OPTYPE_HL, OPTYPE_SP,             
                           A  9258    ;  181	};
                           A  9259    ;  182	operandlist operands_add[] = {
                           A  9260    ;  183	    {OPTYPE_A, OPTYPE_INDIRECT_HL,     
                           A  9261    ;  184	    {OPTYPE_A, OPTYPE_IR,              
                           A  9262    ;  185	    {OPTYPE_A, OPTYPE_INDIRECT_IXYd,   
                           A  9263    ;  186	    {OPTYPE_A, OPTYPE_N,               
                           A  9264    ;  187	    {OPTYPE_A, OPTYPE_R,               
                           A  9265    ;  188	    {OPTYPE_HL, OPTYPE_RR,             
                           A  9266    ;  189	    {OPTYPE_HL, OPTYPE_SP,             
                           A  9267    ;  190	    {OPTYPE_IXY, OPTYPE_RXY,           
                           A  9268    ;  191	    {OPTYPE_IXY, OPTYPE_SP,            
                           A  9269    ;  192	};
                           A  9270    ;  193	operandlist operands_and[] = {
                           A  9271    ;  194	    {OPTYPE_A, OPTYPE_INDIRECT_HL,     
                           A  9272    ;  195	    {OPTYPE_A, OPTYPE_IR,              
                           A  9273    ;  196	    {OPTYPE_A, OPTYPE_INDIRECT_IXYd,   
                           A  9274    ;  197	    {OPTYPE_A, OPTYPE_N,               
                           A  9275    ;  198	    {OPTYPE_A, OPTYPE_R,               
                           A  9276    ;  199	    // same set, without A register
                           A  9277    ;  200	    {OPTYPE_INDIRECT_HL, OPTYPE_NONE,  
                           A  9278    ;  201	    {OPTYPE_IR, OPTYPE_NONE,           
                           A  9279    ;  202	    {OPTYPE_INDIRECT_IXYd, OPTYPE_NONE,
                           A  9280    ;  203	    {OPTYPE_N, OPTYPE_NONE,            
                           A  9281    ;  204	    {OPTYPE_R, OPTYPE_NONE,            
                           A  9282    ;  205	};
                           A  9283    ;  206	operandlist operands_bit[] = {
                           A  9284    ;  207	    {OPTYPE_BIT, OPTYPE_INDIRECT_HL,   
                           A  9285    ;  208	    {OPTYPE_BIT, OPTYPE_INDIRECT_IXYd, 
                           A  9286    ;  209	    {OPTYPE_BIT, OPTYPE_R,             
                           A  9287    ;  210	};
                           A  9288    ;  211	operandlist operands_call[] = {
                           A  9289    ;  212	    {OPTYPE_CC, OPTYPE_MMN,            
                           A  9290    ;  213	    {OPTYPE_MMN, OPTYPE_NONE,          
                           A  9291    ;  214	};
                           A  9292    ;  215	operandlist operands_ccf[]= {
                           A  9293    ;  216	    {OPTYPE_NONE, OPTYPE_NONE,         
                           A  9294    ;  217	};
                           A  9295    ;  218	operandlist operands_cp[]= {
                           A  9296    ;  219	    {OPTYPE_A, OPTYPE_INDIRECT_HL,     
                           A  9297    ;  220	    {OPTYPE_A, OPTYPE_IR,              
                           A  9298    ;  221	    {OPTYPE_A, OPTYPE_INDIRECT_IXYd,   
                           A  9299    ;  222	    {OPTYPE_A, OPTYPE_N,               
                           A  9300    ;  223	    {OPTYPE_A, OPTYPE_R,               
                           A  9301    ;  224	    // same set, without A register
                           A  9302    ;  225	    {OPTYPE_INDIRECT_HL, OPTYPE_NONE,  
                           A  9303    ;  226	    {OPTYPE_IR,  OPTYPE_NONE,          
                           A  9304    ;  227	    {OPTYPE_INDIRECT_IXYd,  OPTYPE_NONE
                           A  9305    ;  228	    {OPTYPE_N,  OPTYPE_NONE,           
                           A  9306    ;  229	    {OPTYPE_R,  OPTYPE_NONE,           
                           A  9307    ;  230	
                           A  9308    ;  231	};
                           A  9309    ;  232	operandlist operands_cpd[]= {
                           A  9310    ;  233	    {OPTYPE_NONE, OPTYPE_NONE,         
                           A  9311    ;  234	};
                           A  9312    ;  235	operandlist operands_cpdr[]= {
                           A  9313    ;  236	    {OPTYPE_NONE, OPTYPE_NONE,         
                           A  9314    ;  237	};
                           A  9315    ;  238	operandlist operands_cpi[]= {
                           A  9316    ;  239	    {OPTYPE_NONE, OPTYPE_NONE,         
                           A  9317    ;  240	};
                           A  9318    ;  241	operandlist operands_cpir[]= {
                           A  9319    ;  242	    {OPTYPE_NONE, OPTYPE_NONE,         
                           A  9320    ;  243	};
                           A  9321    ;  244	operandlist operands_cpl[]= {
                           A  9322    ;  245	    {OPTYPE_NONE, OPTYPE_NONE,         
                           A  9323    ;  246	};
                           A  9324    ;  247	operandlist operands_daa[]= {
                           A  9325    ;  248	    {OPTYPE_NONE, OPTYPE_NONE,         
                           A  9326    ;  249	};
                           A  9327    ;  250	operandlist operands_dec[]= {
                           A  9328    ;  251	    {OPTYPE_INDIRECT_HL, OPTYPE_NONE,  
                           A  9329    ;  252	    {OPTYPE_IR, OPTYPE_NONE,           
                           A  9330    ;  253	    {OPTYPE_IXY, OPTYPE_NONE,          
                           A  9331    ;  254	    {OPTYPE_INDIRECT_IXYd, OPTYPE_NONE,
                           A  9332    ;  255	    {OPTYPE_R, OPTYPE_NONE,            
                           A  9333    ;  256	    {OPTYPE_RR, OPTYPE_NONE,           
                           A  9334    ;  257	    {OPTYPE_SP, OPTYPE_NONE,           
                           A  9335    ;  258	};
                           A  9336    ;  259	operandlist operands_di[]= {
                           A  9337    ;  260	    {OPTYPE_NONE, OPTYPE_NONE,         
                           A  9338    ;  261	};
                           A  9339    ;  262	operandlist operands_djnz[]= {
                           A  9340    ;  263	    {OPTYPE_N, OPTYPE_NONE,            
                           A  9341    ;  264	};
                           A  9342    ;  265	operandlist operands_ei[]= {
                           A  9343    ;  266	    {OPTYPE_NONE, OPTYPE_NONE,         
                           A  9344    ;  267	};
                           A  9345    ;  268	operandlist operands_ex[]= {
                           A  9346    ;  269	    {OPTYPE_AF, OPTYPE_AF,             
                           A  9347    ;  270	    {OPTYPE_DE, OPTYPE_HL,             
                           A  9348    ;  271	    {OPTYPE_INDIRECT_SP, OPTYPE_HL,    
                           A  9349    ;  272	    {OPTYPE_INDIRECT_SP, OPTYPE_IXY,   
                           A  9350    ;  273	};
                           A  9351    ;  274	operandlist operands_exx[]= {
                           A  9352    ;  275	    {OPTYPE_NONE, OPTYPE_NONE,         
                           A  9353    ;  276	};
                           A  9354    ;  277	operandlist operands_halt[]= {
                           A  9355    ;  278	    {OPTYPE_NONE, OPTYPE_NONE,         
                           A  9356    ;  279	};
                           A  9357    ;  280	operandlist operands_im[]= {
                           A  9358    ;  281	    {OPTYPE_NSELECT, OPTYPE_NONE,      
                           A  9359    ;  282	};
                           A  9360    ;  283	operandlist operands_in[]= {
                           A  9361    ;  284	    {OPTYPE_A, OPTYPE_INDIRECT_N,      
                           A  9362    ;  285	    {OPTYPE_R, OPTYPE_INDIRECT_BC,     
                           A  9363    ;  286	    {OPTYPE_R, OPTYPE_INDIRECT_C,      
                           A  9364    ;  287	};
                           A  9365    ;  288	operandlist operands_in0[]= {
                           A  9366    ;  289	    {OPTYPE_R, OPTYPE_INDIRECT_N,      
                           A  9367    ;  290	};
                           A  9368    ;  291	operandlist operands_inc[]= {
                           A  9369    ;  292	    {OPTYPE_INDIRECT_HL, OPTYPE_NONE,  
                           A  9370    ;  293	    {OPTYPE_IR, OPTYPE_NONE,           
                           A  9371    ;  294	    {OPTYPE_IXY, OPTYPE_NONE,          
                           A  9372    ;  295	    {OPTYPE_INDIRECT_IXYd, OPTYPE_NONE,
                           A  9373    ;  296	    {OPTYPE_R, OPTYPE_NONE,            
                           A  9374    ;  297	    {OPTYPE_RR, OPTYPE_NONE,           
                           A  9375    ;  298	    {OPTYPE_SP, OPTYPE_NONE,           
                           A  9376    ;  299	};
                           A  9377    ;  300	operandlist operands_ind[]= {
                           A  9378    ;  301	    {OPTYPE_NONE, OPTYPE_NONE,         
                           A  9379    ;  302	};
                           A  9380    ;  303	operandlist operands_ind2[]= {
                           A  9381    ;  304	    {OPTYPE_NONE, OPTYPE_NONE,         
                           A  9382    ;  305	};
                           A  9383    ;  306	operandlist operands_ind2r[]= {
                           A  9384    ;  307	    {OPTYPE_NONE, OPTYPE_NONE,         
                           A  9385    ;  308	};
                           A  9386    ;  309	operandlist operands_indm[]= {
                           A  9387    ;  310	    {OPTYPE_NONE, OPTYPE_NONE,         
                           A  9388    ;  311	};
                           A  9389    ;  312	operandlist operands_indmr[]= {
                           A  9390    ;  313	    {OPTYPE_NONE, OPTYPE_NONE,         
                           A  9391    ;  314	};
                           A  9392    ;  315	operandlist operands_indr[]= {
                           A  9393    ;  316	    {OPTYPE_NONE, OPTYPE_NONE,         
                           A  9394    ;  317	};
                           A  9395    ;  318	operandlist operands_indrx[]= {
                           A  9396    ;  319	    {OPTYPE_NONE, OPTYPE_NONE,         
                           A  9397    ;  320	};
                           A  9398    ;  321	operandlist operands_ini[]= {
                           A  9399    ;  322	    {OPTYPE_NONE, OPTYPE_NONE,         
                           A  9400    ;  323	};
                           A  9401    ;  324	operandlist operands_ini2[]= {
                           A  9402    ;  325	    {OPTYPE_NONE, OPTYPE_NONE,         
                           A  9403    ;  326	};
                           A  9404    ;  327	operandlist operands_ini2r[]= {
                           A  9405    ;  328	    {OPTYPE_NONE, OPTYPE_NONE,         
                           A  9406    ;  329	};
                           A  9407    ;  330	operandlist operands_inim[]= {
                           A  9408    ;  331	    {OPTYPE_NONE, OPTYPE_NONE,         
                           A  9409    ;  332	};
                           A  9410    ;  333	operandlist operands_inimr[]= {
                           A  9411    ;  334	    {OPTYPE_NONE, OPTYPE_NONE,         
                           A  9412    ;  335	};
                           A  9413    ;  336	operandlist operands_inir[]= {
                           A  9414    ;  337	    {OPTYPE_NONE, OPTYPE_NONE,         
                           A  9415    ;  338	};
                           A  9416    ;  339	operandlist operands_inirx[]= {
                           A  9417    ;  340	    {OPTYPE_NONE, OPTYPE_NONE,         
                           A  9418    ;  341	};
                           A  9419    ;  342	operandlist operands_jp[] = {
                           A  9420    ;  343	    {OPTYPE_CC, OPTYPE_MMN,            
                           A  9421    ;  344	    {OPTYPE_INDIRECT_HL, OPTYPE_NONE,  
                           A  9422    ;  345	    {OPTYPE_INDIRECT_IXY, OPTYPE_NONE, 
                           A  9423    ;  346	    {OPTYPE_MMN, OPTYPE_NONE,          
                           A  9424    ;  347	};
                           A  9425    ;  348	operandlist operands_jr[]= {
                           A  9426    ;  349	    {OPTYPE_CCA, OPTYPE_N,             
                           A  9427    ;  350	    {OPTYPE_N, OPTYPE_NONE,            
                           A  9428    ;  351	};
                           A  9429    ;  352	operandlist operands_ld[] = {
                           A  9430    ;  353	    {OPTYPE_A, OPTYPE_I,               
                           A  9431    ;  354	    {OPTYPE_A, OPTYPE_INDIRECT_IXYd,   
                           A  9432    ;  355	    {OPTYPE_A, OPTYPE_MB,              
                           A  9433    ;  356	    {OPTYPE_A, OPTYPE_INDIRECT_MMN,    
                           A  9434    ;  357	    {OPTYPE_A, OPTYPE_REG_R,           
                           A  9435    ;  358	    {OPTYPE_A, OPTYPE_INDIRECT_BC,     
                           A  9436    ;  359	    {OPTYPE_A, OPTYPE_INDIRECT_DE,     
                           A  9437    ;  360	    {OPTYPE_A, OPTYPE_INDIRECT_HL,     
                           A  9438    ;  361	    {OPTYPE_HL, OPTYPE_I,              
                           A  9439    ;  362	    {OPTYPE_INDIRECT_HL, OPTYPE_IX,    
                           A  9440    ;  363	    {OPTYPE_INDIRECT_HL, OPTYPE_IY,    
                           A  9441    ;  364	    {OPTYPE_INDIRECT_HL, OPTYPE_N,     
                           A  9442    ;  365	    {OPTYPE_INDIRECT_HL, OPTYPE_R,     
                           A  9443    ;  366	    {OPTYPE_INDIRECT_HL, OPTYPE_RR,    
                           A  9444    ;  367	    {OPTYPE_I, OPTYPE_HL,              
                           A  9445    ;  368	    {OPTYPE_I, OPTYPE_A,               
                           A  9446    ;  369	    {OPTYPE_IR, OPTYPE_IR,             
                           A  9447    ;  370	    {OPTYPE_IR, OPTYPE_N,              
                           A  9448    ;  371	    {OPTYPE_IR, OPTYPE_R_AEONLY,       
                           A  9449    ;  372	    {OPTYPE_IX, OPTYPE_INDIRECT_HL,    
                           A  9450    ;  373	    {OPTYPE_IY, OPTYPE_INDIRECT_HL,    
                           A  9451    ;  374	    {OPTYPE_IX, OPTYPE_INDIRECT_IXd,   
                           A  9452    ;  375	    {OPTYPE_IY, OPTYPE_INDIRECT_IYd,   
                           A  9453    ;  376	    {OPTYPE_IX, OPTYPE_INDIRECT_IYd,   
                           A  9454    ;  377	    {OPTYPE_IY, OPTYPE_INDIRECT_IXd,   
                           A  9455    ;  378	    {OPTYPE_IXY, OPTYPE_MMN,           
                           A  9456    ;  379	    {OPTYPE_IXY, OPTYPE_INDIRECT_MMN,  
                           A  9457    ;  380	    {OPTYPE_INDIRECT_IXd, OPTYPE_IX,   
                           A  9458    ;  381	    {OPTYPE_INDIRECT_IYd, OPTYPE_IY,   
                           A  9459    ;  382	    {OPTYPE_INDIRECT_IXd, OPTYPE_IY,   
                           A  9460    ;  383	    {OPTYPE_INDIRECT_IYd, OPTYPE_IX,   
                           A  9461    ;  384	    {OPTYPE_INDIRECT_IXYd, OPTYPE_N,   
                           A  9462    ;  385	    {OPTYPE_INDIRECT_IXYd, OPTYPE_R,   
                           A  9463    ;  386	    {OPTYPE_INDIRECT_IXYd, OPTYPE_RR,  
                           A  9464    ;  387	    {OPTYPE_MB, OPTYPE_A,              
                           A  9465    ;  388	    {OPTYPE_INDIRECT_MMN, OPTYPE_A,    
                           A  9466    ;  389	    {OPTYPE_INDIRECT_MMN, OPTYPE_IXY,  
                           A  9467    ;  390	    {OPTYPE_INDIRECT_MMN, OPTYPE_HL,   
                           A  9468    ;  391	    {OPTYPE_INDIRECT_MMN, OPTYPE_RR,   
                           A  9469    ;  392	    {OPTYPE_INDIRECT_MMN, OPTYPE_SP,   
                           A  9470    ;  393	    {OPTYPE_REG_R, OPTYPE_A,           
                           A  9471    ;  394	    {OPTYPE_R, OPTYPE_INDIRECT_HL,     
                           A  9472    ;  395	    {OPTYPE_R_AEONLY, OPTYPE_IR,       
                           A  9473    ;  396	    {OPTYPE_R, OPTYPE_INDIRECT_IXYd,   
                           A  9474    ;  397	    {OPTYPE_R, OPTYPE_N,               
                           A  9475    ;  398	    {OPTYPE_R, OPTYPE_R,               
                           A  9476    ;  399	    {OPTYPE_RR, OPTYPE_INDIRECT_HL,    
                           A  9477    ;  400	    {OPTYPE_RR, OPTYPE_INDIRECT_IXYd,  
                           A  9478    ;  401	    {OPTYPE_RR, OPTYPE_MMN,            
                           A  9479    ;  402	    {OPTYPE_HL, OPTYPE_INDIRECT_MMN,   
                           A  9480    ;  403	    {OPTYPE_RR, OPTYPE_INDIRECT_MMN,   
                           A  9481    ;  404	    {OPTYPE_INDIRECT_HL, OPTYPE_A,     
                           A  9482    ;  405	    {OPTYPE_INDIRECT_RR, OPTYPE_A,     
                           A  9483    ;  406	    {OPTYPE_SP, OPTYPE_HL,             
                           A  9484    ;  407	    {OPTYPE_SP, OPTYPE_IXY,            
                           A  9485    ;  408	    {OPTYPE_SP, OPTYPE_MMN,            
                           A  9486    ;  409	    {OPTYPE_SP, OPTYPE_INDIRECT_MMN,   
                           A  9487    ;  410	};
                           A  9488    ;  411	operandlist operands_ldd[] = {
                           A  9489    ;  412	    {OPTYPE_NONE, OPTYPE_NONE,         
                           A  9490    ;  413	};
                           A  9491    ;  414	operandlist operands_lddr[] = {
                           A  9492    ;  415	    {OPTYPE_NONE, OPTYPE_NONE,         
                           A  9493    ;  416	};
                           A  9494    ;  417	operandlist operands_ldi[] = {
                           A  9495    ;  418	    {OPTYPE_NONE, OPTYPE_NONE,         
                           A  9496    ;  419	};
                           A  9497    ;  420	operandlist operands_ldir[] = {
                           A  9498    ;  421	    {OPTYPE_NONE, OPTYPE_NONE,         
                           A  9499    ;  422	};
                           A  9500    ;  423	operandlist operands_lea[] = {
                           A  9501    ;  424	    {OPTYPE_IX, OPTYPE_IXd,            
                           A  9502    ;  425	    {OPTYPE_IY, OPTYPE_IXd,            
                           A  9503    ;  426	    {OPTYPE_IX, OPTYPE_IYd,            
                           A  9504    ;  427	    {OPTYPE_IY, OPTYPE_IYd,            
                           A  9505    ;  428	    {OPTYPE_RR, OPTYPE_IXd,            
                           A  9506    ;  429	    {OPTYPE_RR, OPTYPE_IYd,            
                           A  9507    ;  430	};
                           A  9508    ;  431	operandlist operands_mlt[] = {
                           A  9509    ;  432	    {OPTYPE_RR, OPTYPE_NONE,           
                           A  9510    ;  433	    {OPTYPE_SP, OPTYPE_NONE,           
                           A  9511    ;  434	};
                           A  9512    ;  435	operandlist operands_neg[] = {
                           A  9513    ;  436	    {OPTYPE_NONE, OPTYPE_NONE,         
                           A  9514    ;  437	};
                           A  9515    ;  438	operandlist operands_nop[] = {
                           A  9516    ;  439	    {OPTYPE_NONE, OPTYPE_NONE,         
                           A  9517    ;  440	};
                           A  9518    ;  441	operandlist operands_or[] = {
                           A  9519    ;  442	    {OPTYPE_A, OPTYPE_INDIRECT_HL,     
                           A  9520    ;  443	    {OPTYPE_A, OPTYPE_IR,              
                           A  9521    ;  444	    {OPTYPE_A, OPTYPE_INDIRECT_IXYd,   
                           A  9522    ;  445	    {OPTYPE_A, OPTYPE_N,               
                           A  9523    ;  446	    {OPTYPE_A, OPTYPE_R,               
                           A  9524    ;  447	    // same set, without A register
                           A  9525    ;  448	    {OPTYPE_INDIRECT_HL, OPTYPE_NONE,  
                           A  9526    ;  449	    {OPTYPE_IR, OPTYPE_NONE,           
                           A  9527    ;  450	    {OPTYPE_INDIRECT_IXYd, OPTYPE_NONE,
                           A  9528    ;  451	    {OPTYPE_N, OPTYPE_NONE,            
                           A  9529    ;  452	    {OPTYPE_R, OPTYPE_NONE,            
                           A  9530    ;  453	};
                           A  9531    ;  454	operandlist operands_otd2r[] = {
                           A  9532    ;  455	    {OPTYPE_NONE, OPTYPE_NONE,         
                           A  9533    ;  456	};
                           A  9534    ;  457	operandlist operands_otdm[] = {
                           A  9535    ;  458	    {OPTYPE_NONE, OPTYPE_NONE,         
                           A  9536    ;  459	};
                           A  9537    ;  460	operandlist operands_otdmr[] = {
                           A  9538    ;  461	    {OPTYPE_NONE, OPTYPE_NONE,         
                           A  9539    ;  462	};
                           A  9540    ;  463	operandlist operands_otdr[] = {
                           A  9541    ;  464	    {OPTYPE_NONE, OPTYPE_NONE,         
                           A  9542    ;  465	};
                           A  9543    ;  466	operandlist operands_otdrx[] = {
                           A  9544    ;  467	    {OPTYPE_NONE, OPTYPE_NONE,         
                           A  9545    ;  468	};
                           A  9546    ;  469	operandlist operands_oti2r[] = {
                           A  9547    ;  470	    {OPTYPE_NONE, OPTYPE_NONE,         
                           A  9548    ;  471	};
                           A  9549    ;  472	operandlist operands_otim[] = {
                           A  9550    ;  473	    {OPTYPE_NONE, OPTYPE_NONE,         
                           A  9551    ;  474	};
                           A  9552    ;  475	operandlist operands_otimr[] = {
                           A  9553    ;  476	    {OPTYPE_NONE, OPTYPE_NONE,         
                           A  9554    ;  477	};
                           A  9555    ;  478	operandlist operands_otir[] = {
                           A  9556    ;  479	    {OPTYPE_NONE, OPTYPE_NONE,         
                           A  9557    ;  480	};
                           A  9558    ;  481	operandlist operands_otirx[] = {
                           A  9559    ;  482	    {OPTYPE_NONE, OPTYPE_NONE,         
                           A  9560    ;  483	};
                           A  9561    ;  484	operandlist operands_out[] = {
                           A  9562    ;  485	    {OPTYPE_INDIRECT_BC, OPTYPE_R,     
                           A  9563    ;  486	    {OPTYPE_INDIRECT_C, OPTYPE_R,      
                           A  9564    ;  487	    {OPTYPE_INDIRECT_N, OPTYPE_A,      
                           A  9565    ;  488	}; 
                           A  9566    ;  489	operandlist operands_out0[] = {
                           A  9567    ;  490	    {OPTYPE_INDIRECT_N, OPTYPE_R,      
                           A  9568    ;  491	};
                           A  9569    ;  492	operandlist operands_outd[] = {
                           A  9570    ;  493	    {OPTYPE_NONE, OPTYPE_NONE,         
                           A  9571    ;  494	};
                           A  9572    ;  495	operandlist operands_outd2[] = {
                           A  9573    ;  496	    {OPTYPE_NONE, OPTYPE_NONE,         
                           A  9574    ;  497	};
                           A  9575    ;  498	operandlist operands_outi[] = {
                           A  9576    ;  499	    {OPTYPE_NONE, OPTYPE_NONE,         
                           A  9577    ;  500	};
                           A  9578    ;  501	operandlist operands_outi2[] = {
                           A  9579    ;  502	    {OPTYPE_NONE, OPTYPE_NONE,         
                           A  9580    ;  503	};
                           A  9581    ;  504	operandlist operands_pea[] = {
                           A  9582    ;  505	    {OPTYPE_IXd, OPTYPE_NONE,          
                           A  9583    ;  506	    {OPTYPE_IYd, OPTYPE_NONE,          
                           A  9584    ;  507	};
                           A  9585    ;  508	operandlist operands_pop[] = {
                           A  9586    ;  509	    {OPTYPE_AF, OPTYPE_NONE,           
                           A  9587    ;  510	    {OPTYPE_IXY, OPTYPE_NONE,          
                           A  9588    ;  511	    {OPTYPE_RR, OPTYPE_NONE,           
                           A  9589    ;  512	};
                           A  9590    ;  513	operandlist operands_push[] = {
                           A  9591    ;  514	    {OPTYPE_AF, OPTYPE_NONE,           
                           A  9592    ;  515	    {OPTYPE_IXY, OPTYPE_NONE,          
                           A  9593    ;  516	    {OPTYPE_RR, OPTYPE_NONE,           
                           A  9594    ;  517	};
                           A  9595    ;  518	operandlist operands_res[] = {
                           A  9596    ;  519	    {OPTYPE_BIT, OPTYPE_INDIRECT_HL,   
                           A  9597    ;  520	    {OPTYPE_BIT, OPTYPE_INDIRECT_IXYd, 
                           A  9598    ;  521	    {OPTYPE_BIT, OPTYPE_R,             
                           A  9599    ;  522	};
                           A  9600    ;  523	operandlist operands_ret[] = {
                           A  9601    ;  524	    {OPTYPE_NONE, OPTYPE_NONE,         
                           A  9602    ;  525	    {OPTYPE_CC, OPTYPE_NONE,           
                           A  9603    ;  526	};
                           A  9604    ;  527	operandlist operands_reti[] = {
                           A  9605    ;  528	    {OPTYPE_NONE, OPTYPE_NONE,         
                           A  9606    ;  529	};
                           A  9607    ;  530	operandlist operands_retn[] = {
                           A  9608    ;  531	    {OPTYPE_NONE, OPTYPE_NONE,         
                           A  9609    ;  532	};
                           A  9610    ;  533	operandlist operands_rl[] = {
                           A  9611    ;  534	    {OPTYPE_INDIRECT_HL, OPTYPE_NONE,  
                           A  9612    ;  535	    {OPTYPE_INDIRECT_IXYd, OPTYPE_NONE,
                           A  9613    ;  536	    {OPTYPE_R, OPTYPE_NONE,            
                           A  9614    ;  537	};
                           A  9615    ;  538	operandlist operands_rla[] = {
                           A  9616    ;  539	    {OPTYPE_NONE, OPTYPE_NONE,         
                           A  9617    ;  540	};
                           A  9618    ;  541	operandlist operands_rlc[] = {
                           A  9619    ;  542	    {OPTYPE_INDIRECT_HL, OPTYPE_NONE,  
                           A  9620    ;  543	    {OPTYPE_INDIRECT_IXYd, OPTYPE_NONE,
                           A  9621    ;  544	    {OPTYPE_R, OPTYPE_NONE,            
                           A  9622    ;  545	};
                           A  9623    ;  546	operandlist operands_rlca[] = {
                           A  9624    ;  547	    {OPTYPE_NONE, OPTYPE_NONE,         
                           A  9625    ;  548	};
                           A  9626    ;  549	operandlist operands_rld[] = {
                           A  9627    ;  550	    {OPTYPE_NONE, OPTYPE_NONE,         
                           A  9628    ;  551	};
                           A  9629    ;  552	operandlist operands_rr[] = {
                           A  9630    ;  553	    {OPTYPE_INDIRECT_HL, OPTYPE_NONE,  
                           A  9631    ;  554	    {OPTYPE_INDIRECT_IXYd, OPTYPE_NONE,
                           A  9632    ;  555	    {OPTYPE_R, OPTYPE_NONE,            
                           A  9633    ;  556	};
                           A  9634    ;  557	operandlist operands_rra[] = {
                           A  9635    ;  558	    {OPTYPE_NONE, OPTYPE_NONE,         
                           A  9636    ;  559	};
                           A  9637    ;  560	operandlist operands_rrc[] = {
                           A  9638    ;  561	    {OPTYPE_INDIRECT_HL, OPTYPE_NONE,  
                           A  9639    ;  562	    {OPTYPE_INDIRECT_IXYd, OPTYPE_NONE,
                           A  9640    ;  563	    {OPTYPE_R, OPTYPE_NONE,            
                           A  9641    ;  564	};
                           A  9642    ;  565	operandlist operands_rrca[] = {
                           A  9643    ;  566	    {OPTYPE_NONE, OPTYPE_NONE,         
                           A  9644    ;  567	};
                           A  9645    ;  568	operandlist operands_rrd[] = {
                           A  9646    ;  569	    {OPTYPE_NONE, OPTYPE_NONE,         
                           A  9647    ;  570	};
                           A  9648    ;  571	operandlist operands_rsmix[] = {
                           A  9649    ;  572	    {OPTYPE_NONE, OPTYPE_NONE,         
                           A  9650    ;  573	};
                           A  9651    ;  574	operandlist operands_rst[] = {
                           A  9652    ;  575	    {OPTYPE_N, OPTYPE_NONE,            
                           A  9653    ;  576	};
                           A  9654    ;  577	operandlist operands_sbc[] = {
                           A  9655    ;  578	    {OPTYPE_A, OPTYPE_INDIRECT_HL,     
                           A  9656    ;  579	    {OPTYPE_A, OPTYPE_IR,              
                           A  9657    ;  580	    {OPTYPE_A, OPTYPE_INDIRECT_IXYd,   
                           A  9658    ;  581	    {OPTYPE_A, OPTYPE_N,               
                           A  9659    ;  582	    {OPTYPE_A, OPTYPE_R,               
                           A  9660    ;  583	    {OPTYPE_HL, OPTYPE_RR,             
                           A  9661    ;  584	    {OPTYPE_HL, OPTYPE_SP,             
                           A  9662    ;  585	};
                           A  9663    ;  586	operandlist operands_scf[] = {
                           A  9664    ;  587	    {OPTYPE_NONE, OPTYPE_NONE,         
                           A  9665    ;  588	};
                           A  9666    ;  589	operandlist operands_set[] = {
                           A  9667    ;  590	    {OPTYPE_BIT, OPTYPE_INDIRECT_HL,   
                           A  9668    ;  591	    {OPTYPE_BIT, OPTYPE_INDIRECT_IXYd, 
                           A  9669    ;  592	    {OPTYPE_BIT, OPTYPE_R,             
                           A  9670    ;  593	};
                           A  9671    ;  594	operandlist operands_sla[] = {
                           A  9672    ;  595	    {OPTYPE_INDIRECT_HL, OPTYPE_NONE,  
                           A  9673    ;  596	    {OPTYPE_INDIRECT_IXYd, OPTYPE_NONE,
                           A  9674    ;  597	    {OPTYPE_R, OPTYPE_NONE,            
                           A  9675    ;  598	};
                           A  9676    ;  599	operandlist operands_slp[] = {
                           A  9677    ;  600	    {OPTYPE_NONE, OPTYPE_NONE,         
                           A  9678    ;  601	};
                           A  9679    ;  602	operandlist operands_sra[] = {
                           A  9680    ;  603	    {OPTYPE_INDIRECT_HL, OPTYPE_NONE,  
                           A  9681    ;  604	    {OPTYPE_INDIRECT_IXYd, OPTYPE_NONE,
                           A  9682    ;  605	    {OPTYPE_R, OPTYPE_NONE,            
                           A  9683    ;  606	};
                           A  9684    ;  607	operandlist operands_srl[] = {
                           A  9685    ;  608	    {OPTYPE_INDIRECT_HL, OPTYPE_NONE,  
                           A  9686    ;  609	    {OPTYPE_INDIRECT_IXYd, OPTYPE_NONE,
                           A  9687    ;  610	    {OPTYPE_R, OPTYPE_NONE,            
                           A  9688    ;  611	};
                           A  9689    ;  612	operandlist operands_stmix[] = {
                           A  9690    ;  613	    {OPTYPE_NONE, OPTYPE_NONE,         
                           A  9691    ;  614	};
                           A  9692    ;  615	operandlist operands_sub[] = {
                           A  9693    ;  616	    {OPTYPE_A, OPTYPE_INDIRECT_HL,     
                           A  9694    ;  617	    {OPTYPE_A, OPTYPE_IR,              
                           A  9695    ;  618	    {OPTYPE_A, OPTYPE_INDIRECT_IXYd,   
                           A  9696    ;  619	    {OPTYPE_A, OPTYPE_N,               
                           A  9697    ;  620	    {OPTYPE_A, OPTYPE_R,               
                           A  9698    ;  621	    // same set, without A register
                           A  9699    ;  622	    {OPTYPE_INDIRECT_HL, OPTYPE_NONE,  
                           A  9700    ;  623	    {OPTYPE_IR, OPTYPE_NONE,           
                           A  9701    ;  624	    {OPTYPE_INDIRECT_IXYd, OPTYPE_NONE,
                           A  9702    ;  625	    {OPTYPE_N, OPTYPE_NONE,            
                           A  9703    ;  626	    {OPTYPE_R, OPTYPE_NONE,            
                           A  9704    ;  627	};
                           A  9705    ;  628	operandlist operands_tst[] = {
                           A  9706    ;  629	    {OPTYPE_A, OPTYPE_INDIRECT_HL,     
                           A  9707    ;  630	    {OPTYPE_A, OPTYPE_N,               
                           A  9708    ;  631	    {OPTYPE_A, OPTYPE_R,               
                           A  9709    ;  632	    // same set, without A register
                           A  9710    ;  633	    {OPTYPE_INDIRECT_HL, OPTYPE_NONE,  
                           A  9711    ;  634	    {OPTYPE_N, OPTYPE_NONE,            
                           A  9712    ;  635	    {OPTYPE_R, OPTYPE_NONE,            
                           A  9713    ;  636	};
                           A  9714    ;  637	operandlist operands_tstio[] = {
                           A  9715    ;  638	    {OPTYPE_N, OPTYPE_NONE,            
                           A  9716    ;  639	};
                           A  9717    ;  640	operandlist operands_xor[] = {
                           A  9718    ;  641	    {OPTYPE_A, OPTYPE_INDIRECT_HL,     
                           A  9719    ;  642	    {OPTYPE_A, OPTYPE_IR,              
                           A  9720    ;  643	    {OPTYPE_A, OPTYPE_INDIRECT_IXYd,   
                           A  9721    ;  644	    {OPTYPE_A, OPTYPE_N,               
                           A  9722    ;  645	    {OPTYPE_A, OPTYPE_R,               
                           A  9723    ;  646	    // same set, without A register
                           A  9724    ;  647	    {OPTYPE_INDIRECT_HL, OPTYPE_NONE,  
                           A  9725    ;  648	    {OPTYPE_IR, OPTYPE_NONE,           
                           A  9726    ;  649	    {OPTYPE_INDIRECT_IXYd, OPTYPE_NONE,
                           A  9727    ;  650	    {OPTYPE_N, OPTYPE_NONE,            
                           A  9728    ;  651	    {OPTYPE_R, OPTYPE_NONE,            
                           A  9729    ;  652	};
                           A  9730    ;  653	
                           A  9731    ;  654	
                           A  9732    ;  655	// this table needs to be sorted on nam
                           A  9733    ;  656	instruction instructions[] = {
                           A  9734    	SEGMENT CODE
                           A  9735    ;  657	    {"adc",      EZ80, 0, sizeof(operan
                           A  9736    ;  658	    {"add",      EZ80, 0, sizeof(operan
                           A  9737    ;  659	    {"align",    ASSEMBLER, ASM_ALIGN, 
                           A  9738    ;  660	    {"and",      EZ80, 0, sizeof(operan
                           A  9739    ;  661	    {"ascii",    ASSEMBLER, ASM_DB, 0, 
                           A  9740    ;  662	    {"asciz",    ASSEMBLER, ASM_ASCIZ, 
                           A  9741    ;  663	    {"assume",   ASSEMBLER, ASM_ADL, 0,
                           A  9742    ;  664	    {"bit",      EZ80, 0, sizeof(operan
                           A  9743    ;  665	    {"blkb",     ASSEMBLER, ASM_BLKB, 0
                           A  9744    ;  666	    {"blkl",     ASSEMBLER, ASM_BLKL, 0
                           A  9745    ;  667	    {"blkp",     ASSEMBLER, ASM_BLKP, 0
                           A  9746    ;  668	    {"blkw",     ASSEMBLER, ASM_BLKW, 0
                           A  9747    ;  669	    {"byte",     ASSEMBLER, ASM_DB, 0, 
                           A  9748    ;  670	    {"call",     EZ80, 0, sizeof(operan
                           A  9749    ;  671	    {"ccf",      EZ80, 0, sizeof(operan
                           A  9750    ;  672	    {"cp",       EZ80, 0, sizeof(operan
                           A  9751    ;  673	    {"cpd",      EZ80, 0, sizeof(operan
                           A  9752    ;  674	    {"cpdr",     EZ80, 0, sizeof(operan
                           A  9753    ;  675	    {"cpi",      EZ80, 0, sizeof(operan
                           A  9754    ;  676	    {"cpir",     EZ80, 0, sizeof(operan
                           A  9755    ;  677	    {"cpl",      EZ80, 0, sizeof(operan
                           A  9756    ;  678	    {"daa",      EZ80, 0, sizeof(operan
                           A  9757    ;  679	    {"db",       ASSEMBLER, ASM_DB, 0, 
                           A  9758    ;  680	    {"dec",      EZ80, 0, sizeof(operan
                           A  9759    ;  681	    {"defb",     ASSEMBLER, ASM_DB, 0, 
                           A  9760    ;  682	    {"defs",     ASSEMBLER, ASM_DS, 0, 
                           A  9761    ;  683	    {"defw",     ASSEMBLER, ASM_DW, 0, 
                           A  9762    ;  684	    {"di",       EZ80, 0, sizeof(operan
                           A  9763    ;  685	    {"djnz",     EZ80, 0, sizeof(operan
                           A  9764    ;  686	    {"dw24",     ASSEMBLER, ASM_DW24, 0
                           A  9765    ;  687	    {"ds",       ASSEMBLER, ASM_DS, 0, 
                           A  9766    ;  688	    {"dw",       ASSEMBLER, ASM_DW, 0, 
                           A  9767    ;  689	    {"ei",       EZ80, 0, sizeof(operan
                           A  9768    ;  690	    {"equ",      ASSEMBLER, ASM_EQU, 0,
                           A  9769    ;  691	    {"ex",       EZ80, 0, sizeof(operan
                           A  9770    ;  692	    {"exx",      EZ80, 0, sizeof(operan
                           A  9771    ;  693	    {"halt",     EZ80, 0, sizeof(operan
                           A  9772    ;  694	    {"im",       EZ80, 0, sizeof(operan
                           A  9773    ;  695	    {"in",       EZ80, 0, sizeof(operan
                           A  9774    ;  696	    {"in0",      EZ80, 0, sizeof(operan
                           A  9775    ;  697	    {"inc",      EZ80, 0, sizeof(operan
                           A  9776    ;  698	    {"include",  ASSEMBLER, ASM_INCLUDE
                           A  9777    ;  699	    {"ind",      EZ80, 0, sizeof(operan
                           A  9778    ;  700	    {"ind2",     EZ80, 0, sizeof(operan
                           A  9779    ;  701	    {"ind2r",    EZ80, 0, sizeof(operan
                           A  9780    ;  702	    {"indm",     EZ80, 0, sizeof(operan
                           A  9781    ;  703	    {"indmr",    EZ80, 0, sizeof(operan
                           A  9782    ;  704	    {"indr",     EZ80, 0, sizeof(operan
                           A  9783    ;  705	    {"indrx",    EZ80, 0, sizeof(operan
                           A  9784    ;  706	    {"ini",      EZ80, 0, sizeof(operan
                           A  9785    ;  707	    {"ini2",     EZ80, 0, sizeof(operan
                           A  9786    ;  708	    {"ini2r",    EZ80, 0, sizeof(operan
                           A  9787    ;  709	    {"inim",     EZ80, 0, sizeof(operan
                           A  9788    ;  710	    {"inimr",    EZ80, 0, sizeof(operan
                           A  9789    ;  711	    {"inir",     EZ80, 0, sizeof(operan
                           A  9790    ;  712	    {"inirx",    EZ80, 0, sizeof(operan
                           A  9791    ;  713	    {"jp",       EZ80, 0, sizeof(operan
                           A  9792    ;  714	    {"jr",       EZ80, 0, sizeof(operan
                           A  9793    ;  715	    {"ld",       EZ80, 0, sizeof(operan
                           A  9794    ;  716	    {"ldd",      EZ80, 0, sizeof(operan
                           A  9795    ;  717	    {"lddr",     EZ80, 0, sizeof(operan
                           A  9796    ;  718	    {"ldi",      EZ80, 0, sizeof(operan
                           A  9797    ;  719	    {"ldir",     EZ80, 0, sizeof(operan
                           A  9798    ;  720	    {"lea",      EZ80, 0, sizeof(operan
                           A  9799    ;  721	    {"mlt",      EZ80, 0, sizeof(operan
                           A  9800    ;  722	    {"neg",      EZ80, 0, sizeof(operan
                           A  9801    ;  723	    {"nop",      EZ80, 0, sizeof(operan
                           A  9802    ;  724	    {"or",       EZ80, 0, sizeof(operan
                           A  9803    ;  725	    {"org",     ASSEMBLER, ASM_ORG, 0, 
                           A  9804    ;  726	    {"otd2r",    EZ80, 0, sizeof(operan
                           A  9805    ;  727	    {"otdm",     EZ80, 0, sizeof(operan
                           A  9806    ;  728	    {"otdmr",    EZ80, 0, sizeof(operan
                           A  9807    ;  729	    {"otdr",     EZ80, 0, sizeof(operan
                           A  9808    ;  730	    {"otdrx",    EZ80, 0, sizeof(operan
                           A  9809    ;  731	    {"oti2r",    EZ80, 0, sizeof(operan
                           A  9810    ;  732	    {"otim",     EZ80, 0, sizeof(operan
                           A  9811    ;  733	    {"otimr",    EZ80, 0, sizeof(operan
                           A  9812    ;  734	    {"otir",     EZ80, 0, sizeof(operan
                           A  9813    ;  735	    {"otirx",    EZ80, 0, sizeof(operan
                           A  9814    ;  736	    {"out",      EZ80, 0, sizeof(operan
                           A  9815    ;  737	    {"out0",     EZ80, 0, sizeof(operan
                           A  9816    ;  738	    {"outd",     EZ80, 0, sizeof(operan
                           A  9817    ;  739	    {"outd2",    EZ80, 0, sizeof(operan
                           A  9818    ;  740	    {"outi",     EZ80, 0, sizeof(operan
                           A  9819    ;  741	    {"outi2",    EZ80, 0, sizeof(operan
                           A  9820    ;  742	    {"pea",      EZ80, 0, sizeof(operan
                           A  9821    ;  743	    {"pop",      EZ80, 0, sizeof(operan
                           A  9822    ;  744	    {"push",     EZ80, 0, sizeof(operan
                           A  9823    ;  745	    {"res",      EZ80, 0, sizeof(operan
                           A  9824    ;  746	    {"ret",      EZ80, 0, sizeof(operan
                           A  9825    ;  747	    {"reti",     EZ80, 0, sizeof(operan
                           A  9826    ;  748	    {"retn",     EZ80, 0, sizeof(operan
                           A  9827    ;  749	    {"rl",       EZ80, 0, sizeof(operan
                           A  9828    ;  750	    {"rla",      EZ80, 0, sizeof(operan
                           A  9829    ;  751	    {"rlc",      EZ80, 0, sizeof(operan
                           A  9830    ;  752	    {"rlca",     EZ80, 0, sizeof(operan
                           A  9831    ;  753	    {"rld",      EZ80, 0, sizeof(operan
                           A  9832    ;  754	    {"rr",       EZ80, 0, sizeof(operan
                           A  9833    ;  755	    {"rra",      EZ80, 0, sizeof(operan
                           A  9834    ;  756	    {"rrc",      EZ80, 0, sizeof(operan
                           A  9835    ;  757	    {"rrca",     EZ80, 0, sizeof(operan
                           A  9836    ;  758	    {"rrd",      EZ80, 0, sizeof(operan
                           A  9837    ;  759	    {"rsmix",    EZ80, 0, sizeof(operan
                           A  9838    ;  760	    {"rst",      EZ80, 0, sizeof(operan
                           A  9839    ;  761	    {"sbc",      EZ80, 0, sizeof(operan
                           A  9840    ;  762	    {"scf",      EZ80, 0, sizeof(operan
                           A  9841    ;  763	    {"set",      EZ80, 0, sizeof(operan
                           A  9842    ;  764	    {"sla",      EZ80, 0, sizeof(operan
                           A  9843    ;  765	    {"slp",      EZ80, 0, sizeof(operan
                           A  9844    ;  766	    {"sra",      EZ80, 0, sizeof(operan
                           A  9845    ;  767	    {"srl",      EZ80, 0, sizeof(operan
                           A  9846    ;  768	    {"stmix",    EZ80, 0, sizeof(operan
                           A  9847    ;  769	    {"sub",      EZ80, 0, sizeof(operan
                           A  9848    ;  770	    {"tst",      EZ80, 0, sizeof(operan
                           A  9849    ;  771	    {"tstio",    EZ80, 0, sizeof(operan
                           A  9850    ;  772	    {"xor",      EZ80, 0, sizeof(operan
                           A  9851    ;  773	};
                           A  9852    ;  774	
                           A  9853    ;  775	// Binary search of instruction table
                           A  9854    ;  776	// Requires a pre-sorted table
                           A  9855    ;  777	instruction * instruction_table_lookup(
04438E                     A  9856    _instruction_table_lookup:
                           A  9857    .DEFINE "_instruction_table_lookup"
                           A  9858    
                           A  9859    .VALUE _instruction_table_lookup
                           A  9860    
                           A  9861    .CLASS 2
                           A  9862    
                           A  9863    .TAG "NONAME6"
                           A  9864    
                           A  9865    .TYPE 328
                           A  9866    
                           A  9867    .ENDEF
                           A  9868    
                           A  9869    .BEGFUNC "instruction_table_lookup",777,"_instr
                           A  9870    
                           A  9871    .LINE 777
                           A  9872    
                           A  9873    .DEFINE "key"
                           A  9874    
                           A  9875    .CLASS 65
                           A  9876    
                           A  9877    .VALUE 6
                           A  9878    
                           A  9879    .TYPE 34
                           A  9880    
                           A  9881    .ENDEF
                           A  9882    
                           A  9883    .DEFINE "lim"
                           A  9884    
                           A  9885    .CLASS 65
                           A  9886    
                           A  9887    .VALUE -3
                           A  9888    
                           A  9889    .TYPE 4
                           A  9890    
                           A  9891    .ENDEF
                           A  9892    
                           A  9893    .DEFINE "p"
                           A  9894    
                           A  9895    .CLASS 65
                           A  9896    
                           A  9897    .VALUE -6
                           A  9898    
                           A  9899    .TAG "NONAME6"
                           A  9900    
                           A  9901    .TYPE 40
                           A  9902    
                           A  9903    .ENDEF
                           A  9904    
                           A  9905    .DEFINE "cmp"
                           A  9906    
                           A  9907    .CLASS 65
                           A  9908    
                           A  9909    .VALUE -9
                           A  9910    
                           A  9911    .TYPE 4
                           A  9912    
                           A  9913    .ENDEF
                           A  9914    
                           A  9915    .DEFINE "base"
                           A  9916    
                           A  9917    .CLASS 65
                           A  9918    
                           A  9919    .VALUE -12
                           A  9920    
                           A  9921    .TAG "NONAME6"
                           A  9922    
                           A  9923    .TYPE 40
                           A  9924    
                           A  9925    .ENDEF
                           A  9926    
04438E DDE5                A  9927    	PUSH	IX
044390 DD210000 00         A  9928    	LD	IX,0
044395 DD39                A  9929    	ADD	IX,SP
044397 ED22F4              A  9930    	LEA	HL,IX+%FFFFFFF4
04439A F9                  A  9931    	LD	SP,HL
                           A  9932    ;  778		instruction *base = instructions;
                           A  9933    .LINE 778
                           A  9934    
04439B 01 55 84 04         A  9935    	LD	BC,_instructions
04439F DD0FF4              A  9936    	LD	(IX+%FFFFFFF4),BC
                           A  9937    ;  779		int lim, cmp;
                           A  9938    ;  780		instruction *p;
                           A  9939    ;  781	
                           A  9940    ;  782		for (lim = sizeof(instructions)/siz
                           A  9941    .LINE 782
                           A  9942    
0443A2 01740000            A  9943    	LD	BC,116
0443A6 DD0FFD              A  9944    	LD	(IX+%FFFFFFFD),BC
0443A9 18 61               A  9945    	JR	L_219
0443AB                     A  9946    L_217:
                           A  9947    ;  783			p = base + (lim >> 1);
                           A  9948    .LINE 783
                           A  9949    
0443AB DD27FD              A  9950    	LD	HL,(IX+%FFFFFFFD)
0443AE 3E01                A  9951    	LD	A,%1
0443B0 CD 9F 64 04         A  9952    	CALL	__ishrs_b
0443B4 3E11                A  9953    	LD	A,%11
0443B6 CD A9 6D 04         A  9954    	CALL	__imul_b
0443BA DD07F4              A  9955    	LD	BC,(IX+%FFFFFFF4)
0443BD 09                  A  9956    	ADD	HL,BC
0443BE DD2FFA              A  9957    	LD	(IX+%FFFFFFFA),HL
                           A  9958    ;  784			cmp = strcasecmp(key,p->name);
                           A  9959    .LINE 784
                           A  9960    
0443C1 DD31FA              A  9961    	LD	IY,(IX+%FFFFFFFA)
0443C4 ED6600              A  9962    	PEA	IY+%0
0443C7 DD0706              A  9963    	LD	BC,(IX+%6)
0443CA C5                  A  9964    	PUSH	BC
0443CB CD 53 63 04         A  9965    	CALL	_strcasecmp
0443CF C1                  A  9966    	POP	BC
0443D0 C1                  A  9967    	POP	BC
0443D1 DD2FF7              A  9968    	LD	(IX+%FFFFFFF7),HL
                           A  9969    ;  785			if (cmp == 0)
                           A  9970    .LINE 785
                           A  9971    
0443D4 CD E3 6A 04         A  9972    	CALL	__icmpzero
0443D8 20 05               A  9973    	JR	NZ,L_216
                           A  9974    ;  786				return p;
                           A  9975    .LINE 786
                           A  9976    
0443DA DD27FA              A  9977    	LD	HL,(IX+%FFFFFFFA)
0443DD 18 39               A  9978    	JR	L_221
0443DF                     A  9979    L_216:
                           A  9980    ;  787			if (cmp > 0) {
                           A  9981    .LINE 787
                           A  9982    
0443DF DD07F7              A  9983    	LD	BC,(IX+%FFFFFFF7)
0443E2 B7                  A  9984    	OR	A,A
0443E3 ED62                A  9985    	SBC	HL,HL
0443E5 B7                  A  9986    	OR	A,A
0443E6 ED42                A  9987    	SBC	HL,BC
0443E8 CD 1D 64 04         A  9988    	CALL	__setflag
0443EC F2 00 44 04         A  9989    	JP	P,L_218
                           A  9990    ;  788				base = p + 1;
                           A  9991    .LINE 788
                           A  9992    
0443F0 DD31FA              A  9993    	LD	IY,(IX+%FFFFFFFA)
0443F3 ED3311              A  9994    	LEA	IY,IY+%11
0443F6 DD3EF4              A  9995    	LD	(IX+%FFFFFFF4),IY
                           A  9996    ;  789				lim--;
                           A  9997    .LINE 789
                           A  9998    
0443F9 DD07FD              A  9999    	LD	BC,(IX+%FFFFFFFD)
0443FC 0B                  A 10000    	DEC	BC
0443FD DD0FFD              A 10001    	LD	(IX+%FFFFFFFD),BC
                           A 10002    ;  790			}
                           A 10003    ;  791		}
044400                     A 10004    L_218:
                           A 10005    .LINE 791
                           A 10006    
044400 DD27FD              A 10007    	LD	HL,(IX+%FFFFFFFD)
044403 3E01                A 10008    	LD	A,%1
044405 CD 9F 64 04         A 10009    	CALL	__ishrs_b
044409 DD2FFD              A 10010    	LD	(IX+%FFFFFFFD),HL
04440C                     A 10011    L_219:
04440C DD27FD              A 10012    	LD	HL,(IX+%FFFFFFFD)
04440F CD E3 6A 04         A 10013    	CALL	__icmpzero
044413 20 96               A 10014    	JR	NZ,L_217
                           A 10015    ;  792		return (NULL);
                           A 10016    .LINE 792
                           A 10017    
044415 B7                  A 10018    	OR	A,A
044416 ED62                A 10019    	SBC	HL,HL
                           A 10020    ;  793	}
044418                     A 10021    L_221:
                           A 10022    .LINE 793
                           A 10023    
044418 DDF9                A 10024    	LD	SP,IX
04441A DDE1                A 10025    	POP	IX
04441C C9                  A 10026    	RET	
                           A 10027    
                           A 10028    
                           A 10029    ;**************************** _instruction_tabl
                           A 10030    ;Name                         Addr/Register   S
                           A 10031    ;_strcasecmp                         IMPORT  --
                           A 10032    ;_instructions                       STATIC   1
                           A 10033    ;base                                 IX-12    
                           A 10034    ;cmp                                   IX-9    
                           A 10035    ;p                                     IX-6    
                           A 10036    ;lim                                   IX-3    
                           A 10037    ;key                                   IX+6    
                           A 10038    
                           A 10039    
                           A 10040    ; Stack Frame Size: 21 (bytes)
                           A 10041    ;       Spill Code: 0 (instruction)
                           A 10042    
                           A 10043    
                           A 10044    .ENDFUNC "instruction_table_lookup",793,"_instr
                           A 10045    	XREF _strcasecmp:ROM
                           A 10046    	XREF __iand:ROM
                           A 10047    	XREF __setflag:ROM
                           A 10048    	XREF __icmpzero:ROM
                           A 10049    	XREF __imul_b:ROM
                           A 10050    	XREF __ishrs_b:ROM
                           A 10051    	XDEF _instruction_table_lookup
                           A 10052    	XDEF _instructions
                           A 10053    	XDEF _operands_xor
                           A 10054    	XDEF _operands_tstio
                           A 10055    	XDEF _operands_tst
                           A 10056    	XDEF _operands_sub
                           A 10057    	XDEF _operands_stmix
                           A 10058    	XDEF _operands_srl
                           A 10059    	XDEF _operands_sra
                           A 10060    	XDEF _operands_slp
                           A 10061    	XDEF _operands_sla
                           A 10062    	XDEF _operands_set
                           A 10063    	XDEF _operands_scf
                           A 10064    	XDEF _operands_sbc
                           A 10065    	XDEF _operands_rst
                           A 10066    	XDEF _operands_rsmix
                           A 10067    	XDEF _operands_rrd
                           A 10068    	XDEF _operands_rrca
                           A 10069    	XDEF _operands_rrc
                           A 10070    	XDEF _operands_rra
                           A 10071    	XDEF _operands_rr
                           A 10072    	XDEF _operands_rld
                           A 10073    	XDEF _operands_rlca
                           A 10074    	XDEF _operands_rlc
                           A 10075    	XDEF _operands_rla
                           A 10076    	XDEF _operands_rl
                           A 10077    	XDEF _operands_retn
                           A 10078    	XDEF _operands_reti
                           A 10079    	XDEF _operands_ret
                           A 10080    	XDEF _operands_res
                           A 10081    	XDEF _operands_push
                           A 10082    	XDEF _operands_pop
                           A 10083    	XDEF _operands_pea
                           A 10084    	XDEF _operands_outi2
                           A 10085    	XDEF _operands_outi
                           A 10086    	XDEF _operands_outd2
                           A 10087    	XDEF _operands_outd
                           A 10088    	XDEF _operands_out0
                           A 10089    	XDEF _operands_out
                           A 10090    	XDEF _operands_otirx
                           A 10091    	XDEF _operands_otir
                           A 10092    	XDEF _operands_otimr
                           A 10093    	XDEF _operands_otim
                           A 10094    	XDEF _operands_oti2r
                           A 10095    	XDEF _operands_otdrx
                           A 10096    	XDEF _operands_otdr
                           A 10097    	XDEF _operands_otdmr
                           A 10098    	XDEF _operands_otdm
                           A 10099    	XDEF _operands_otd2r
                           A 10100    	XDEF _operands_or
                           A 10101    	XDEF _operands_nop
                           A 10102    	XDEF _operands_neg
                           A 10103    	XDEF _operands_mlt
                           A 10104    	XDEF _operands_lea
                           A 10105    	XDEF _operands_ldir
                           A 10106    	XDEF _operands_ldi
                           A 10107    	XDEF _operands_lddr
                           A 10108    	XDEF _operands_ldd
                           A 10109    	XDEF _operands_ld
                           A 10110    	XDEF _operands_jr
                           A 10111    	XDEF _operands_jp
                           A 10112    	XDEF _operands_inirx
                           A 10113    	XDEF _operands_inir
                           A 10114    	XDEF _operands_inimr
                           A 10115    	XDEF _operands_inim
                           A 10116    	XDEF _operands_ini2r
                           A 10117    	XDEF _operands_ini2
                           A 10118    	XDEF _operands_ini
                           A 10119    	XDEF _operands_indrx
                           A 10120    	XDEF _operands_indr
                           A 10121    	XDEF _operands_indmr
                           A 10122    	XDEF _operands_indm
                           A 10123    	XDEF _operands_ind2r
                           A 10124    	XDEF _operands_ind2
                           A 10125    	XDEF _operands_ind
                           A 10126    	XDEF _operands_inc
                           A 10127    	XDEF _operands_in0
                           A 10128    	XDEF _operands_in
                           A 10129    	XDEF _operands_im
                           A 10130    	XDEF _operands_halt
                           A 10131    	XDEF _operands_exx
                           A 10132    	XDEF _operands_ex
                           A 10133    	XDEF _operands_ei
                           A 10134    	XDEF _operands_djnz
                           A 10135    	XDEF _operands_di
                           A 10136    	XDEF _operands_dec
                           A 10137    	XDEF _operands_daa
                           A 10138    	XDEF _operands_cpl
                           A 10139    	XDEF _operands_cpir
                           A 10140    	XDEF _operands_cpi
                           A 10141    	XDEF _operands_cpdr
                           A 10142    	XDEF _operands_cpd
                           A 10143    	XDEF _operands_cp
                           A 10144    	XDEF _operands_ccf
                           A 10145    	XDEF _operands_call
                           A 10146    	XDEF _operands_bit
                           A 10147    	XDEF _operands_and
                           A 10148    	XDEF _operands_add
                           A 10149    	XDEF _operands_adc
                           A 10150    	XDEF _permittype_matchlist
                           A 10151    	XDEF _raeonly_match
                           A 10152    	XDEF _indirect_iyd_match
                           A 10153    	XDEF _indirect_ixd_match
                           A 10154    	XDEF _iyd_match
                           A 10155    	XDEF _ixd_match
                           A 10156    	XDEF _iy_match
                           A 10157    	XDEF _ix_match
                           A 10158    	XDEF _indirect_de_match
                           A 10159    	XDEF _cca_match
                           A 10160    	XDEF _indirect_ixy_match
                           A 10161    	XDEF _indirect_c_match
                           A 10162    	XDEF _indirect_bc_match
                           A 10163    	XDEF _indirect_n_match
                           A 10164    	XDEF _nselect_match
                           A 10165    	XDEF _de_match
                           A 10166    	XDEF _af_match
                           A 10167    	XDEF _b_match
                           A 10168    	XDEF _i_match
                           A 10169    	XDEF _mb_match
                           A 10170    	XDEF _reg_r_match
                           A 10171    	XDEF _r_match
                           A 10172    	XDEF _indirect_sp_match
                           A 10173    	XDEF _sp_match
                           A 10174    	XDEF _rxy_match
                           A 10175    	XDEF _indirect_rr_match
                           A 10176    	XDEF _rr_match
                           A 10177    	XDEF _indirect_hl_match
                           A 10178    	XDEF _hl_match
                           A 10179    	XDEF _a_match
                           A 10180    	XDEF _n_match
                           A 10181    	XDEF _indirect_mmn_match
                           A 10182    	XDEF _mmn_match
                           A 10183    	XDEF _indirect_ixyd_match
                           A 10184    	XDEF _ixyd_match
                           A 10185    	XDEF _ixy_match
                           A 10186    	XDEF _ir_match
                           A 10187    	XDEF _cc_match
                           A 10188    	XDEF _none_match
                           A 10189    	END


Errors: 0
Warnings: 0
Lines Assembled: 10190
